Archive member included to satisfy reference by file (symbol)

/usr/lib/gcc/arm-none-eabi/4.9.3/../../../arm-none-eabi/lib/armv7e-m/fpu/libg.a(lib_a-atexit.o)
                              /usr/lib/gcc/arm-none-eabi/4.9.3/../../../arm-none-eabi/lib/armv7e-m/fpu/crt0.o (atexit)
/usr/lib/gcc/arm-none-eabi/4.9.3/../../../arm-none-eabi/lib/armv7e-m/fpu/libg.a(lib_a-ctype_.o)
                              build/parser.o (__ctype_ptr__)
/usr/lib/gcc/arm-none-eabi/4.9.3/../../../arm-none-eabi/lib/armv7e-m/fpu/libg.a(lib_a-errno.o)
                              build/syscall.o (__errno)
/usr/lib/gcc/arm-none-eabi/4.9.3/../../../arm-none-eabi/lib/armv7e-m/fpu/libg.a(lib_a-exit.o)
                              /usr/lib/gcc/arm-none-eabi/4.9.3/../../../arm-none-eabi/lib/armv7e-m/fpu/crt0.o (exit)
/usr/lib/gcc/arm-none-eabi/4.9.3/../../../arm-none-eabi/lib/armv7e-m/fpu/libg.a(lib_a-fini.o)
                              /usr/lib/gcc/arm-none-eabi/4.9.3/../../../arm-none-eabi/lib/armv7e-m/fpu/crt0.o (__libc_fini_array)
/usr/lib/gcc/arm-none-eabi/4.9.3/../../../arm-none-eabi/lib/armv7e-m/fpu/libg.a(lib_a-impure.o)
                              /usr/lib/gcc/arm-none-eabi/4.9.3/../../../arm-none-eabi/lib/armv7e-m/fpu/libg.a(lib_a-exit.o) (_global_impure_ptr)
/usr/lib/gcc/arm-none-eabi/4.9.3/../../../arm-none-eabi/lib/armv7e-m/fpu/libg.a(lib_a-init.o)
                              /usr/lib/gcc/arm-none-eabi/4.9.3/../../../arm-none-eabi/lib/armv7e-m/fpu/crt0.o (__libc_init_array)
/usr/lib/gcc/arm-none-eabi/4.9.3/../../../arm-none-eabi/lib/armv7e-m/fpu/libg.a(lib_a-memset.o)
                              /usr/lib/gcc/arm-none-eabi/4.9.3/../../../arm-none-eabi/lib/armv7e-m/fpu/crt0.o (memset)
/usr/lib/gcc/arm-none-eabi/4.9.3/../../../arm-none-eabi/lib/armv7e-m/fpu/libg.a(lib_a-printf.o)
                              build/main.o (printf)
/usr/lib/gcc/arm-none-eabi/4.9.3/../../../arm-none-eabi/lib/armv7e-m/fpu/libg.a(lib_a-putchar.o)
                              build/parser.o (putchar)
/usr/lib/gcc/arm-none-eabi/4.9.3/../../../arm-none-eabi/lib/armv7e-m/fpu/libg.a(lib_a-puts.o)
                              build/main.o (puts)
/usr/lib/gcc/arm-none-eabi/4.9.3/../../../arm-none-eabi/lib/armv7e-m/fpu/libg.a(lib_a-setvbuf.o)
                              build/terminal.o (setvbuf)
/usr/lib/gcc/arm-none-eabi/4.9.3/../../../arm-none-eabi/lib/armv7e-m/fpu/libg.a(lib_a-strcasecmp.o)
                              build/parser.o (strcasecmp)
/usr/lib/gcc/arm-none-eabi/4.9.3/../../../arm-none-eabi/lib/armv7e-m/fpu/libg.a(lib_a-strcpy.o)
                              build/parser.o (strcpy)
/usr/lib/gcc/arm-none-eabi/4.9.3/../../../arm-none-eabi/lib/armv7e-m/fpu/libg.a(lib_a-strlen.o)
                              build/parser.o (strlen)
/usr/lib/gcc/arm-none-eabi/4.9.3/../../../arm-none-eabi/lib/armv7e-m/fpu/libg.a(lib_a-strtok.o)
                              build/parser.o (strtok)
/usr/lib/gcc/arm-none-eabi/4.9.3/../../../arm-none-eabi/lib/armv7e-m/fpu/libg.a(lib_a-strtok_r.o)
                              /usr/lib/gcc/arm-none-eabi/4.9.3/../../../arm-none-eabi/lib/armv7e-m/fpu/libg.a(lib_a-strtok.o) (__strtok_r)
/usr/lib/gcc/arm-none-eabi/4.9.3/../../../arm-none-eabi/lib/armv7e-m/fpu/libg.a(lib_a-strtol.o)
                              build/parser.o (strtol)
/usr/lib/gcc/arm-none-eabi/4.9.3/../../../arm-none-eabi/lib/armv7e-m/fpu/libg.a(lib_a-strtoul.o)
                              build/parser.o (strtoul)
/usr/lib/gcc/arm-none-eabi/4.9.3/../../../arm-none-eabi/lib/armv7e-m/fpu/libg.a(lib_a-vfprintf.o)
                              /usr/lib/gcc/arm-none-eabi/4.9.3/../../../arm-none-eabi/lib/armv7e-m/fpu/libg.a(lib_a-printf.o) (_vfprintf_r)
/usr/lib/gcc/arm-none-eabi/4.9.3/../../../arm-none-eabi/lib/armv7e-m/fpu/libg.a(lib_a-wsetup.o)
                              /usr/lib/gcc/arm-none-eabi/4.9.3/../../../arm-none-eabi/lib/armv7e-m/fpu/libg.a(lib_a-vfprintf.o) (__swsetup_r)
/usr/lib/gcc/arm-none-eabi/4.9.3/../../../arm-none-eabi/lib/armv7e-m/fpu/libg.a(lib_a-__atexit.o)
                              /usr/lib/gcc/arm-none-eabi/4.9.3/../../../arm-none-eabi/lib/armv7e-m/fpu/libg.a(lib_a-atexit.o) (__register_exitproc)
/usr/lib/gcc/arm-none-eabi/4.9.3/../../../arm-none-eabi/lib/armv7e-m/fpu/libg.a(lib_a-__call_atexit.o)
                              /usr/lib/gcc/arm-none-eabi/4.9.3/../../../arm-none-eabi/lib/armv7e-m/fpu/libg.a(lib_a-exit.o) (__call_exitprocs)
/usr/lib/gcc/arm-none-eabi/4.9.3/../../../arm-none-eabi/lib/armv7e-m/fpu/libg.a(lib_a-dtoa.o)
                              /usr/lib/gcc/arm-none-eabi/4.9.3/../../../arm-none-eabi/lib/armv7e-m/fpu/libg.a(lib_a-vfprintf.o) (_dtoa_r)
/usr/lib/gcc/arm-none-eabi/4.9.3/../../../arm-none-eabi/lib/armv7e-m/fpu/libg.a(lib_a-fflush.o)
                              /usr/lib/gcc/arm-none-eabi/4.9.3/../../../arm-none-eabi/lib/armv7e-m/fpu/libg.a(lib_a-setvbuf.o) (_fflush_r)
/usr/lib/gcc/arm-none-eabi/4.9.3/../../../arm-none-eabi/lib/armv7e-m/fpu/libg.a(lib_a-findfp.o)
                              /usr/lib/gcc/arm-none-eabi/4.9.3/../../../arm-none-eabi/lib/armv7e-m/fpu/libg.a(lib_a-setvbuf.o) (_cleanup_r)
/usr/lib/gcc/arm-none-eabi/4.9.3/../../../arm-none-eabi/lib/armv7e-m/fpu/libg.a(lib_a-freer.o)
                              /usr/lib/gcc/arm-none-eabi/4.9.3/../../../arm-none-eabi/lib/armv7e-m/fpu/libg.a(lib_a-setvbuf.o) (_free_r)
/usr/lib/gcc/arm-none-eabi/4.9.3/../../../arm-none-eabi/lib/armv7e-m/fpu/libg.a(lib_a-fvwrite.o)
                              /usr/lib/gcc/arm-none-eabi/4.9.3/../../../arm-none-eabi/lib/armv7e-m/fpu/libg.a(lib_a-puts.o) (__sfvwrite_r)
/usr/lib/gcc/arm-none-eabi/4.9.3/../../../arm-none-eabi/lib/armv7e-m/fpu/libg.a(lib_a-fwalk.o)
                              /usr/lib/gcc/arm-none-eabi/4.9.3/../../../arm-none-eabi/lib/armv7e-m/fpu/libg.a(lib_a-findfp.o) (_fwalk)
/usr/lib/gcc/arm-none-eabi/4.9.3/../../../arm-none-eabi/lib/armv7e-m/fpu/libg.a(lib_a-locale.o)
                              /usr/lib/gcc/arm-none-eabi/4.9.3/../../../arm-none-eabi/lib/armv7e-m/fpu/libg.a(lib_a-vfprintf.o) (_localeconv_r)
/usr/lib/gcc/arm-none-eabi/4.9.3/../../../arm-none-eabi/lib/armv7e-m/fpu/libg.a(lib_a-makebuf.o)
                              /usr/lib/gcc/arm-none-eabi/4.9.3/../../../arm-none-eabi/lib/armv7e-m/fpu/libg.a(lib_a-wsetup.o) (__smakebuf_r)
/usr/lib/gcc/arm-none-eabi/4.9.3/../../../arm-none-eabi/lib/armv7e-m/fpu/libg.a(lib_a-malloc.o)
                              /usr/lib/gcc/arm-none-eabi/4.9.3/../../../arm-none-eabi/lib/armv7e-m/fpu/libg.a(lib_a-setvbuf.o) (malloc)
/usr/lib/gcc/arm-none-eabi/4.9.3/../../../arm-none-eabi/lib/armv7e-m/fpu/libg.a(lib_a-mallocr.o)
                              /usr/lib/gcc/arm-none-eabi/4.9.3/../../../arm-none-eabi/lib/armv7e-m/fpu/libg.a(lib_a-findfp.o) (_malloc_r)
/usr/lib/gcc/arm-none-eabi/4.9.3/../../../arm-none-eabi/lib/armv7e-m/fpu/libg.a(lib_a-memchr.o)
                              /usr/lib/gcc/arm-none-eabi/4.9.3/../../../arm-none-eabi/lib/armv7e-m/fpu/libg.a(lib_a-vfprintf.o) (memchr)
/usr/lib/gcc/arm-none-eabi/4.9.3/../../../arm-none-eabi/lib/armv7e-m/fpu/libg.a(lib_a-memcpy.o)
                              /usr/lib/gcc/arm-none-eabi/4.9.3/../../../arm-none-eabi/lib/armv7e-m/fpu/libg.a(lib_a-dtoa.o) (memcpy)
/usr/lib/gcc/arm-none-eabi/4.9.3/../../../arm-none-eabi/lib/armv7e-m/fpu/libg.a(lib_a-memmove.o)
                              /usr/lib/gcc/arm-none-eabi/4.9.3/../../../arm-none-eabi/lib/armv7e-m/fpu/libg.a(lib_a-fvwrite.o) (memmove)
/usr/lib/gcc/arm-none-eabi/4.9.3/../../../arm-none-eabi/lib/armv7e-m/fpu/libg.a(lib_a-mlock.o)
                              /usr/lib/gcc/arm-none-eabi/4.9.3/../../../arm-none-eabi/lib/armv7e-m/fpu/libg.a(lib_a-freer.o) (__malloc_lock)
/usr/lib/gcc/arm-none-eabi/4.9.3/../../../arm-none-eabi/lib/armv7e-m/fpu/libg.a(lib_a-mprec.o)
                              /usr/lib/gcc/arm-none-eabi/4.9.3/../../../arm-none-eabi/lib/armv7e-m/fpu/libg.a(lib_a-dtoa.o) (_Balloc)
/usr/lib/gcc/arm-none-eabi/4.9.3/../../../arm-none-eabi/lib/armv7e-m/fpu/libg.a(lib_a-putc.o)
                              /usr/lib/gcc/arm-none-eabi/4.9.3/../../../arm-none-eabi/lib/armv7e-m/fpu/libg.a(lib_a-putchar.o) (_putc_r)
/usr/lib/gcc/arm-none-eabi/4.9.3/../../../arm-none-eabi/lib/armv7e-m/fpu/libg.a(lib_a-reallocr.o)
                              /usr/lib/gcc/arm-none-eabi/4.9.3/../../../arm-none-eabi/lib/armv7e-m/fpu/libg.a(lib_a-fvwrite.o) (_realloc_r)
/usr/lib/gcc/arm-none-eabi/4.9.3/../../../arm-none-eabi/lib/armv7e-m/fpu/libg.a(lib_a-s_fpclassify.o)
                              /usr/lib/gcc/arm-none-eabi/4.9.3/../../../arm-none-eabi/lib/armv7e-m/fpu/libg.a(lib_a-vfprintf.o) (__fpclassifyd)
/usr/lib/gcc/arm-none-eabi/4.9.3/../../../arm-none-eabi/lib/armv7e-m/fpu/libg.a(lib_a-stdio.o)
                              /usr/lib/gcc/arm-none-eabi/4.9.3/../../../arm-none-eabi/lib/armv7e-m/fpu/libg.a(lib_a-findfp.o) (__sread)
/usr/lib/gcc/arm-none-eabi/4.9.3/../../../arm-none-eabi/lib/armv7e-m/fpu/libg.a(lib_a-strcmp.o)
                              /usr/lib/gcc/arm-none-eabi/4.9.3/../../../arm-none-eabi/lib/armv7e-m/fpu/libg.a(lib_a-locale.o) (strcmp)
/usr/lib/gcc/arm-none-eabi/4.9.3/../../../arm-none-eabi/lib/armv7e-m/fpu/libg.a(lib_a-vfiprintf.o)
                              /usr/lib/gcc/arm-none-eabi/4.9.3/../../../arm-none-eabi/lib/armv7e-m/fpu/libg.a(lib_a-vfprintf.o) (__sprint_r)
/usr/lib/gcc/arm-none-eabi/4.9.3/../../../arm-none-eabi/lib/armv7e-m/fpu/libg.a(lib_a-wbuf.o)
                              /usr/lib/gcc/arm-none-eabi/4.9.3/../../../arm-none-eabi/lib/armv7e-m/fpu/libg.a(lib_a-putc.o) (__swbuf_r)
/usr/lib/gcc/arm-none-eabi/4.9.3/../../../arm-none-eabi/lib/armv7e-m/fpu/libg.a(lib_a-callocr.o)
                              /usr/lib/gcc/arm-none-eabi/4.9.3/../../../arm-none-eabi/lib/armv7e-m/fpu/libg.a(lib_a-mprec.o) (_calloc_r)
/usr/lib/gcc/arm-none-eabi/4.9.3/../../../arm-none-eabi/lib/armv7e-m/fpu/libg.a(lib_a-fclose.o)
                              /usr/lib/gcc/arm-none-eabi/4.9.3/../../../arm-none-eabi/lib/armv7e-m/fpu/libg.a(lib_a-findfp.o) (_fclose_r)
/usr/lib/gcc/arm-none-eabi/4.9.3/../../../arm-none-eabi/lib/armv7e-m/fpu/libg.a(lib_a-fputwc.o)
                              /usr/lib/gcc/arm-none-eabi/4.9.3/../../../arm-none-eabi/lib/armv7e-m/fpu/libg.a(lib_a-vfiprintf.o) (_fputwc_r)
/usr/lib/gcc/arm-none-eabi/4.9.3/../../../arm-none-eabi/lib/armv7e-m/fpu/libg.a(lib_a-wcrtomb.o)
                              /usr/lib/gcc/arm-none-eabi/4.9.3/../../../arm-none-eabi/lib/armv7e-m/fpu/libg.a(lib_a-fputwc.o) (_wcrtomb_r)
/usr/lib/gcc/arm-none-eabi/4.9.3/../../../arm-none-eabi/lib/armv7e-m/fpu/libg.a(lib_a-wctomb_r.o)
                              /usr/lib/gcc/arm-none-eabi/4.9.3/../../../arm-none-eabi/lib/armv7e-m/fpu/libg.a(lib_a-wcrtomb.o) (__wctomb)
/usr/lib/gcc/arm-none-eabi/4.9.3/armv7e-m/fpu/libgcc.a(_arm_addsubdf3.o)
                              /usr/lib/gcc/arm-none-eabi/4.9.3/../../../arm-none-eabi/lib/armv7e-m/fpu/libg.a(lib_a-dtoa.o) (__aeabi_dsub)
/usr/lib/gcc/arm-none-eabi/4.9.3/armv7e-m/fpu/libgcc.a(_arm_muldivdf3.o)
                              /usr/lib/gcc/arm-none-eabi/4.9.3/../../../arm-none-eabi/lib/armv7e-m/fpu/libg.a(lib_a-dtoa.o) (__aeabi_dmul)
/usr/lib/gcc/arm-none-eabi/4.9.3/armv7e-m/fpu/libgcc.a(_arm_cmpdf2.o)
                              /usr/lib/gcc/arm-none-eabi/4.9.3/../../../arm-none-eabi/lib/armv7e-m/fpu/libg.a(lib_a-vfprintf.o) (__aeabi_dcmpeq)
/usr/lib/gcc/arm-none-eabi/4.9.3/armv7e-m/fpu/libgcc.a(_arm_fixdfsi.o)
                              /usr/lib/gcc/arm-none-eabi/4.9.3/../../../arm-none-eabi/lib/armv7e-m/fpu/libg.a(lib_a-dtoa.o) (__aeabi_d2iz)
/usr/lib/gcc/arm-none-eabi/4.9.3/armv7e-m/fpu/libgcc.a(_aeabi_uldivmod.o)
                              /usr/lib/gcc/arm-none-eabi/4.9.3/../../../arm-none-eabi/lib/armv7e-m/fpu/libg.a(lib_a-vfprintf.o) (__aeabi_uldivmod)
/usr/lib/gcc/arm-none-eabi/4.9.3/armv7e-m/fpu/libgcc.a(bpabi.o)
                              /usr/lib/gcc/arm-none-eabi/4.9.3/armv7e-m/fpu/libgcc.a(_aeabi_uldivmod.o) (__gnu_uldivmod_helper)
/usr/lib/gcc/arm-none-eabi/4.9.3/armv7e-m/fpu/libgcc.a(_dvmd_tls.o)
                              /usr/lib/gcc/arm-none-eabi/4.9.3/armv7e-m/fpu/libgcc.a(_aeabi_uldivmod.o) (__aeabi_ldiv0)
/usr/lib/gcc/arm-none-eabi/4.9.3/armv7e-m/fpu/libgcc.a(_divdi3.o)
                              /usr/lib/gcc/arm-none-eabi/4.9.3/armv7e-m/fpu/libgcc.a(bpabi.o) (__divdi3)
/usr/lib/gcc/arm-none-eabi/4.9.3/armv7e-m/fpu/libgcc.a(_udivdi3.o)
                              /usr/lib/gcc/arm-none-eabi/4.9.3/armv7e-m/fpu/libgcc.a(bpabi.o) (__udivdi3)

Allocating common symbols
Common symbol       size              file

input_b             0x50              build/parser.o
hUSBDDevice         0x224             build/terminal.o
tasks               0x230             build/task_executive1.o
input               0x50              build/parser.o
BuffLength          0x4               build/usbd_cdc_interface.o
UartHandle          0x6c              build/usbd_cdc_interface.o
hpcd                0x178             build/usbd_conf.o
USBDDataIn          0x4               build/terminal.o
currentTask         0x4               build/task_executive1.o
UserRxBuffer        0x800             build/usbd_cdc_interface.o
stacks              0x2800            build/task_executive1.o
USBD_StrDesc        0x100             build/usbd_desc.o
TimHandle           0x3c              build/usbd_cdc_interface.o

Discarded input sections

 .text          0x0000000000000000        0x0 /usr/lib/gcc/arm-none-eabi/4.9.3/armv7e-m/fpu/crti.o
 .data          0x0000000000000000        0x0 /usr/lib/gcc/arm-none-eabi/4.9.3/armv7e-m/fpu/crti.o
 .bss           0x0000000000000000        0x0 /usr/lib/gcc/arm-none-eabi/4.9.3/armv7e-m/fpu/crti.o
 .data          0x0000000000000000        0x4 /usr/lib/gcc/arm-none-eabi/4.9.3/armv7e-m/fpu/crtbegin.o
 .text          0x0000000000000000       0x68 /usr/lib/gcc/arm-none-eabi/4.9.3/../../../arm-none-eabi/lib/armv7e-m/fpu/crt0.o
 .data          0x0000000000000000        0x0 /usr/lib/gcc/arm-none-eabi/4.9.3/../../../arm-none-eabi/lib/armv7e-m/fpu/crt0.o
 .bss           0x0000000000000000        0x0 /usr/lib/gcc/arm-none-eabi/4.9.3/../../../arm-none-eabi/lib/armv7e-m/fpu/crt0.o
 .ARM.extab     0x0000000000000000        0x0 /usr/lib/gcc/arm-none-eabi/4.9.3/../../../arm-none-eabi/lib/armv7e-m/fpu/crt0.o
 .ARM.exidx     0x0000000000000000        0x8 /usr/lib/gcc/arm-none-eabi/4.9.3/../../../arm-none-eabi/lib/armv7e-m/fpu/crt0.o
 .debug_line    0x0000000000000000       0x7e /usr/lib/gcc/arm-none-eabi/4.9.3/../../../arm-none-eabi/lib/armv7e-m/fpu/crt0.o
 .debug_info    0x0000000000000000       0xb0 /usr/lib/gcc/arm-none-eabi/4.9.3/../../../arm-none-eabi/lib/armv7e-m/fpu/crt0.o
 .debug_abbrev  0x0000000000000000       0x14 /usr/lib/gcc/arm-none-eabi/4.9.3/../../../arm-none-eabi/lib/armv7e-m/fpu/crt0.o
 .debug_aranges
                0x0000000000000000       0x20 /usr/lib/gcc/arm-none-eabi/4.9.3/../../../arm-none-eabi/lib/armv7e-m/fpu/crt0.o
 .ARM.attributes
                0x0000000000000000       0x20 /usr/lib/gcc/arm-none-eabi/4.9.3/../../../arm-none-eabi/lib/armv7e-m/fpu/crt0.o
 .text          0x0000000000000000        0x0 build/main.o
 .data          0x0000000000000000        0x0 build/main.o
 .bss           0x0000000000000000        0x0 build/main.o
 .rodata.numLEDs
                0x0000000000000000        0x4 build/main.o
 .bss           0x0000000000000000        0x0 build/mycode.o
 .text          0x0000000000000000        0x0 build/mytest.o
 .data          0x0000000000000000        0x0 build/mytest.o
 .bss           0x0000000000000000        0x0 build/mytest.o
 .text          0x0000000000000000        0x0 build/simple_task.o
 .data          0x0000000000000000        0x0 build/simple_task.o
 .bss           0x0000000000000000        0x0 build/simple_task.o
 .text          0x0000000000000000        0x0 build/task_executive1.o
 .data          0x0000000000000000        0x0 build/task_executive1.o
 .bss           0x0000000000000000        0x0 build/task_executive1.o
 .text          0x0000000000000000        0x0 build/task_test1.o
 .data          0x0000000000000000        0x0 build/task_test1.o
 .bss           0x0000000000000000        0x0 build/task_test1.o
 .text          0x0000000000000000        0x0 build/monitor.o
 .data          0x0000000000000000        0x0 build/monitor.o
 .bss           0x0000000000000000        0x0 build/monitor.o
 .text          0x0000000000000000        0x0 build/parser.o
 .data          0x0000000000000000        0x0 build/parser.o
 .bss           0x0000000000000000        0x0 build/parser.o
 .text.fetch_int32_arg
                0x0000000000000000       0x28 build/parser.o
 .text          0x0000000000000000        0x0 build/dump.o
 .data          0x0000000000000000        0x0 build/dump.o
 .bss           0x0000000000000000        0x0 build/dump.o
 .text          0x0000000000000000        0x0 build/syscall.o
 .data          0x0000000000000000        0x0 build/syscall.o
 .bss           0x0000000000000000        0x0 build/syscall.o
 .text          0x0000000000000000        0x0 build/terminal.o
 .data          0x0000000000000000        0x0 build/terminal.o
 .bss           0x0000000000000000        0x0 build/terminal.o
 .text          0x0000000000000000        0x0 build/decoder/decoder.o
 .data          0x0000000000000000        0x0 build/decoder/decoder.o
 .bss           0x0000000000000000        0x0 build/decoder/decoder.o
 .text          0x0000000000000000        0x0 build/decoder/STM32F30x_decoder.o
 .data          0x0000000000000000        0x0 build/decoder/STM32F30x_decoder.o
 .bss           0x0000000000000000        0x0 build/decoder/STM32F30x_decoder.o
 .text          0x0000000000000000        0x0 build/Drivers/CMSIS/Device/ST/STM32F3xx/Source/Templates/system_stm32f3xx.o
 .data          0x0000000000000000        0x0 build/Drivers/CMSIS/Device/ST/STM32F3xx/Source/Templates/system_stm32f3xx.o
 .bss           0x0000000000000000        0x0 build/Drivers/CMSIS/Device/ST/STM32F3xx/Source/Templates/system_stm32f3xx.o
 .text.SystemCoreClockUpdate
                0x0000000000000000       0x68 build/Drivers/CMSIS/Device/ST/STM32F3xx/Source/Templates/system_stm32f3xx.o
 .data.AHBPrescTable
                0x0000000000000000       0x10 build/Drivers/CMSIS/Device/ST/STM32F3xx/Source/Templates/system_stm32f3xx.o
 .text          0x0000000000000000        0x0 build/Drivers/STM32F3xx_HAL_Driver/Src/stm32f3xx_hal_rcc.o
 .data          0x0000000000000000        0x0 build/Drivers/STM32F3xx_HAL_Driver/Src/stm32f3xx_hal_rcc.o
 .bss           0x0000000000000000        0x0 build/Drivers/STM32F3xx_HAL_Driver/Src/stm32f3xx_hal_rcc.o
 .text.HAL_RCC_DeInit
                0x0000000000000000       0x3c build/Drivers/STM32F3xx_HAL_Driver/Src/stm32f3xx_hal_rcc.o
 .text.HAL_RCC_MCOConfig
                0x0000000000000000       0x40 build/Drivers/STM32F3xx_HAL_Driver/Src/stm32f3xx_hal_rcc.o
 .text.HAL_RCC_EnableCSS
                0x0000000000000000        0xc build/Drivers/STM32F3xx_HAL_Driver/Src/stm32f3xx_hal_rcc.o
 .text.HAL_RCC_DisableCSS
                0x0000000000000000        0xc build/Drivers/STM32F3xx_HAL_Driver/Src/stm32f3xx_hal_rcc.o
 .text.HAL_RCC_GetPCLK1Freq
                0x0000000000000000       0x30 build/Drivers/STM32F3xx_HAL_Driver/Src/stm32f3xx_hal_rcc.o
 .text.HAL_RCC_GetPCLK2Freq
                0x0000000000000000       0x30 build/Drivers/STM32F3xx_HAL_Driver/Src/stm32f3xx_hal_rcc.o
 .text.HAL_RCC_GetOscConfig
                0x0000000000000000       0x88 build/Drivers/STM32F3xx_HAL_Driver/Src/stm32f3xx_hal_rcc.o
 .text.HAL_RCC_GetClockConfig
                0x0000000000000000       0x3c build/Drivers/STM32F3xx_HAL_Driver/Src/stm32f3xx_hal_rcc.o
 .text.HAL_RCC_CCSCallback
                0x0000000000000000        0x2 build/Drivers/STM32F3xx_HAL_Driver/Src/stm32f3xx_hal_rcc.o
 .text.HAL_RCC_NMI_IRQHandler
                0x0000000000000000       0x20 build/Drivers/STM32F3xx_HAL_Driver/Src/stm32f3xx_hal_rcc.o
 .text          0x0000000000000000        0x0 build/Drivers/STM32F3xx_HAL_Driver/Src/stm32f3xx_hal.o
 .data          0x0000000000000000        0x0 build/Drivers/STM32F3xx_HAL_Driver/Src/stm32f3xx_hal.o
 .bss           0x0000000000000000        0x0 build/Drivers/STM32F3xx_HAL_Driver/Src/stm32f3xx_hal.o
 .text.HAL_MspDeInit
                0x0000000000000000        0x2 build/Drivers/STM32F3xx_HAL_Driver/Src/stm32f3xx_hal.o
 .text.HAL_DeInit
                0x0000000000000000       0x24 build/Drivers/STM32F3xx_HAL_Driver/Src/stm32f3xx_hal.o
 .text.HAL_SuspendTick
                0x0000000000000000       0x10 build/Drivers/STM32F3xx_HAL_Driver/Src/stm32f3xx_hal.o
 .text.HAL_ResumeTick
                0x0000000000000000       0x10 build/Drivers/STM32F3xx_HAL_Driver/Src/stm32f3xx_hal.o
 .text.HAL_GetHalVersion
                0x0000000000000000        0x6 build/Drivers/STM32F3xx_HAL_Driver/Src/stm32f3xx_hal.o
 .text.HAL_GetREVID
                0x0000000000000000        0xc build/Drivers/STM32F3xx_HAL_Driver/Src/stm32f3xx_hal.o
 .text.HAL_GetDEVID
                0x0000000000000000       0x10 build/Drivers/STM32F3xx_HAL_Driver/Src/stm32f3xx_hal.o
 .text.HAL_EnableDBGSleepMode
                0x0000000000000000       0x10 build/Drivers/STM32F3xx_HAL_Driver/Src/stm32f3xx_hal.o
 .text.HAL_DisableDBGSleepMode
                0x0000000000000000       0x10 build/Drivers/STM32F3xx_HAL_Driver/Src/stm32f3xx_hal.o
 .text.HAL_EnableDBGStopMode
                0x0000000000000000       0x10 build/Drivers/STM32F3xx_HAL_Driver/Src/stm32f3xx_hal.o
 .text.HAL_DisableDBGStopMode
                0x0000000000000000       0x10 build/Drivers/STM32F3xx_HAL_Driver/Src/stm32f3xx_hal.o
 .text.HAL_EnableDBGStandbyMode
                0x0000000000000000       0x10 build/Drivers/STM32F3xx_HAL_Driver/Src/stm32f3xx_hal.o
 .text.HAL_DisableDBGStandbyMode
                0x0000000000000000       0x10 build/Drivers/STM32F3xx_HAL_Driver/Src/stm32f3xx_hal.o
 .text          0x0000000000000000        0x0 build/Drivers/STM32F3xx_HAL_Driver/Src/stm32f3xx_hal_cortex.o
 .data          0x0000000000000000        0x0 build/Drivers/STM32F3xx_HAL_Driver/Src/stm32f3xx_hal_cortex.o
 .bss           0x0000000000000000        0x0 build/Drivers/STM32F3xx_HAL_Driver/Src/stm32f3xx_hal_cortex.o
 .text.HAL_NVIC_DisableIRQ
                0x0000000000000000       0x18 build/Drivers/STM32F3xx_HAL_Driver/Src/stm32f3xx_hal_cortex.o
 .text.HAL_NVIC_SystemReset
                0x0000000000000000       0x20 build/Drivers/STM32F3xx_HAL_Driver/Src/stm32f3xx_hal_cortex.o
 .text.HAL_NVIC_GetPriorityGrouping
                0x0000000000000000       0x10 build/Drivers/STM32F3xx_HAL_Driver/Src/stm32f3xx_hal_cortex.o
 .text.HAL_NVIC_GetPriority
                0x0000000000000000       0x58 build/Drivers/STM32F3xx_HAL_Driver/Src/stm32f3xx_hal_cortex.o
 .text.HAL_NVIC_SetPendingIRQ
                0x0000000000000000       0x18 build/Drivers/STM32F3xx_HAL_Driver/Src/stm32f3xx_hal_cortex.o
 .text.HAL_NVIC_GetPendingIRQ
                0x0000000000000000       0x20 build/Drivers/STM32F3xx_HAL_Driver/Src/stm32f3xx_hal_cortex.o
 .text.HAL_NVIC_ClearPendingIRQ
                0x0000000000000000       0x18 build/Drivers/STM32F3xx_HAL_Driver/Src/stm32f3xx_hal_cortex.o
 .text.HAL_NVIC_GetActive
                0x0000000000000000       0x20 build/Drivers/STM32F3xx_HAL_Driver/Src/stm32f3xx_hal_cortex.o
 .text.HAL_SYSTICK_CLKSourceConfig
                0x0000000000000000       0x18 build/Drivers/STM32F3xx_HAL_Driver/Src/stm32f3xx_hal_cortex.o
 .text.HAL_SYSTICK_Callback
                0x0000000000000000        0x2 build/Drivers/STM32F3xx_HAL_Driver/Src/stm32f3xx_hal_cortex.o
 .text.HAL_SYSTICK_IRQHandler
                0x0000000000000000        0x8 build/Drivers/STM32F3xx_HAL_Driver/Src/stm32f3xx_hal_cortex.o
 .text          0x0000000000000000        0x0 build/Drivers/STM32F3xx_HAL_Driver/Src/stm32f3xx_hal_uart.o
 .data          0x0000000000000000        0x0 build/Drivers/STM32F3xx_HAL_Driver/Src/stm32f3xx_hal_uart.o
 .bss           0x0000000000000000        0x0 build/Drivers/STM32F3xx_HAL_Driver/Src/stm32f3xx_hal_uart.o
 .text.HAL_UART_MspInit
                0x0000000000000000        0x2 build/Drivers/STM32F3xx_HAL_Driver/Src/stm32f3xx_hal_uart.o
 .text.HAL_UART_MspDeInit
                0x0000000000000000        0x2 build/Drivers/STM32F3xx_HAL_Driver/Src/stm32f3xx_hal_uart.o
 .text.HAL_UART_DeInit
                0x0000000000000000       0x36 build/Drivers/STM32F3xx_HAL_Driver/Src/stm32f3xx_hal_uart.o
 .text.HAL_UART_Transmit_IT
                0x0000000000000000       0x60 build/Drivers/STM32F3xx_HAL_Driver/Src/stm32f3xx_hal_uart.o
 .text.HAL_UART_Receive_IT
                0x0000000000000000       0x90 build/Drivers/STM32F3xx_HAL_Driver/Src/stm32f3xx_hal_uart.o
 .text.HAL_UART_Transmit_DMA
                0x0000000000000000       0x80 build/Drivers/STM32F3xx_HAL_Driver/Src/stm32f3xx_hal_uart.o
 .text.HAL_UART_Receive_DMA
                0x0000000000000000       0x7c build/Drivers/STM32F3xx_HAL_Driver/Src/stm32f3xx_hal_uart.o
 .text.HAL_UART_DMAPause
                0x0000000000000000       0x54 build/Drivers/STM32F3xx_HAL_Driver/Src/stm32f3xx_hal_uart.o
 .text.HAL_UART_DMAStop
                0x0000000000000000       0x50 build/Drivers/STM32F3xx_HAL_Driver/Src/stm32f3xx_hal_uart.o
 .text.UART_WaitOnFlagUntilTimeout
                0x0000000000000000       0x88 build/Drivers/STM32F3xx_HAL_Driver/Src/stm32f3xx_hal_uart.o
 .text.HAL_UART_Transmit
                0x0000000000000000       0xb6 build/Drivers/STM32F3xx_HAL_Driver/Src/stm32f3xx_hal_uart.o
 .text.HAL_UART_Receive
                0x0000000000000000       0xce build/Drivers/STM32F3xx_HAL_Driver/Src/stm32f3xx_hal_uart.o
 .text.HAL_UART_TxCpltCallback
                0x0000000000000000        0x2 build/Drivers/STM32F3xx_HAL_Driver/Src/stm32f3xx_hal_uart.o
 .text.HAL_UART_TxHalfCpltCallback
                0x0000000000000000        0x2 build/Drivers/STM32F3xx_HAL_Driver/Src/stm32f3xx_hal_uart.o
 .text.UART_DMATxHalfCplt
                0x0000000000000000        0xa build/Drivers/STM32F3xx_HAL_Driver/Src/stm32f3xx_hal_uart.o
 .text.HAL_UART_RxCpltCallback
                0x0000000000000000        0x2 build/Drivers/STM32F3xx_HAL_Driver/Src/stm32f3xx_hal_uart.o
 .text.UART_DMAReceiveCplt
                0x0000000000000000       0x2a build/Drivers/STM32F3xx_HAL_Driver/Src/stm32f3xx_hal_uart.o
 .text.HAL_UART_RxHalfCpltCallback
                0x0000000000000000        0x2 build/Drivers/STM32F3xx_HAL_Driver/Src/stm32f3xx_hal_uart.o
 .text.UART_DMARxHalfCplt
                0x0000000000000000        0xa build/Drivers/STM32F3xx_HAL_Driver/Src/stm32f3xx_hal_uart.o
 .text.HAL_UART_ErrorCallback
                0x0000000000000000        0x2 build/Drivers/STM32F3xx_HAL_Driver/Src/stm32f3xx_hal_uart.o
 .text.UART_DMAError
                0x0000000000000000       0x26 build/Drivers/STM32F3xx_HAL_Driver/Src/stm32f3xx_hal_uart.o
 .text.UART_DMATransmitCplt
                0x0000000000000000       0x48 build/Drivers/STM32F3xx_HAL_Driver/Src/stm32f3xx_hal_uart.o
 .text.HAL_UART_WakeupCallback
                0x0000000000000000        0x2 build/Drivers/STM32F3xx_HAL_Driver/Src/stm32f3xx_hal_uart.o
 .text.HAL_UART_IRQHandler
                0x0000000000000000      0x1c6 build/Drivers/STM32F3xx_HAL_Driver/Src/stm32f3xx_hal_uart.o
 .text.HAL_MultiProcessor_EnterMuteMode
                0x0000000000000000        0xc build/Drivers/STM32F3xx_HAL_Driver/Src/stm32f3xx_hal_uart.o
 .text.HAL_UART_GetState
                0x0000000000000000        0x6 build/Drivers/STM32F3xx_HAL_Driver/Src/stm32f3xx_hal_uart.o
 .text.HAL_UART_GetError
                0x0000000000000000        0x6 build/Drivers/STM32F3xx_HAL_Driver/Src/stm32f3xx_hal_uart.o
 .text.UART_SetConfig
                0x0000000000000000      0x1e4 build/Drivers/STM32F3xx_HAL_Driver/Src/stm32f3xx_hal_uart.o
 .text.UART_AdvFeatureConfig
                0x0000000000000000       0xb8 build/Drivers/STM32F3xx_HAL_Driver/Src/stm32f3xx_hal_uart.o
 .text.UART_CheckIdleState
                0x0000000000000000       0x52 build/Drivers/STM32F3xx_HAL_Driver/Src/stm32f3xx_hal_uart.o
 .text.HAL_UART_Init
                0x0000000000000000       0x5c build/Drivers/STM32F3xx_HAL_Driver/Src/stm32f3xx_hal_uart.o
 .text.HAL_HalfDuplex_Init
                0x0000000000000000       0x64 build/Drivers/STM32F3xx_HAL_Driver/Src/stm32f3xx_hal_uart.o
 .text.HAL_LIN_Init
                0x0000000000000000       0x7a build/Drivers/STM32F3xx_HAL_Driver/Src/stm32f3xx_hal_uart.o
 .text.HAL_MultiProcessor_Init
                0x0000000000000000       0x7e build/Drivers/STM32F3xx_HAL_Driver/Src/stm32f3xx_hal_uart.o
 .text.HAL_UART_DMAResume
                0x0000000000000000       0x4e build/Drivers/STM32F3xx_HAL_Driver/Src/stm32f3xx_hal_uart.o
 .text.HAL_MultiProcessor_EnableMuteMode
                0x0000000000000000       0x2a build/Drivers/STM32F3xx_HAL_Driver/Src/stm32f3xx_hal_uart.o
 .text.HAL_MultiProcessor_DisableMuteMode
                0x0000000000000000       0x2a build/Drivers/STM32F3xx_HAL_Driver/Src/stm32f3xx_hal_uart.o
 .text.UART_Wakeup_AddressConfig
                0x0000000000000000       0x2c build/Drivers/STM32F3xx_HAL_Driver/Src/stm32f3xx_hal_uart.o
 .text.HAL_HalfDuplex_EnableTransmitter
                0x0000000000000000       0x2e build/Drivers/STM32F3xx_HAL_Driver/Src/stm32f3xx_hal_uart.o
 .text.HAL_HalfDuplex_EnableReceiver
                0x0000000000000000       0x2e build/Drivers/STM32F3xx_HAL_Driver/Src/stm32f3xx_hal_uart.o
 .text.HAL_LIN_SendBreak
                0x0000000000000000       0x28 build/Drivers/STM32F3xx_HAL_Driver/Src/stm32f3xx_hal_uart.o
 .rodata.CSWTCH.34
                0x0000000000000000        0x4 build/Drivers/STM32F3xx_HAL_Driver/Src/stm32f3xx_hal_uart.o
 .debug_info    0x0000000000000000     0x14b0 build/Drivers/STM32F3xx_HAL_Driver/Src/stm32f3xx_hal_uart.o
 .debug_abbrev  0x0000000000000000      0x28e build/Drivers/STM32F3xx_HAL_Driver/Src/stm32f3xx_hal_uart.o
 .debug_loc     0x0000000000000000      0xd51 build/Drivers/STM32F3xx_HAL_Driver/Src/stm32f3xx_hal_uart.o
 .debug_aranges
                0x0000000000000000      0x160 build/Drivers/STM32F3xx_HAL_Driver/Src/stm32f3xx_hal_uart.o
 .debug_ranges  0x0000000000000000      0x150 build/Drivers/STM32F3xx_HAL_Driver/Src/stm32f3xx_hal_uart.o
 .debug_line    0x0000000000000000      0xa4f build/Drivers/STM32F3xx_HAL_Driver/Src/stm32f3xx_hal_uart.o
 .debug_str     0x0000000000000000      0xcb6 build/Drivers/STM32F3xx_HAL_Driver/Src/stm32f3xx_hal_uart.o
 .comment       0x0000000000000000       0x39 build/Drivers/STM32F3xx_HAL_Driver/Src/stm32f3xx_hal_uart.o
 .debug_frame   0x0000000000000000      0x3c8 build/Drivers/STM32F3xx_HAL_Driver/Src/stm32f3xx_hal_uart.o
 .ARM.attributes
                0x0000000000000000       0x39 build/Drivers/STM32F3xx_HAL_Driver/Src/stm32f3xx_hal_uart.o
 .text          0x0000000000000000        0x0 build/Drivers/STM32F3xx_HAL_Driver/Src/stm32f3xx_hal_gpio.o
 .data          0x0000000000000000        0x0 build/Drivers/STM32F3xx_HAL_Driver/Src/stm32f3xx_hal_gpio.o
 .bss           0x0000000000000000        0x0 build/Drivers/STM32F3xx_HAL_Driver/Src/stm32f3xx_hal_gpio.o
 .text.HAL_GPIO_DeInit
                0x0000000000000000       0x90 build/Drivers/STM32F3xx_HAL_Driver/Src/stm32f3xx_hal_gpio.o
 .text.HAL_GPIO_LockPin
                0x0000000000000000       0x2a build/Drivers/STM32F3xx_HAL_Driver/Src/stm32f3xx_hal_gpio.o
 .text.HAL_GPIO_EXTI_Callback
                0x0000000000000000        0x2 build/Drivers/STM32F3xx_HAL_Driver/Src/stm32f3xx_hal_gpio.o
 .text.HAL_GPIO_EXTI_IRQHandler
                0x0000000000000000       0x18 build/Drivers/STM32F3xx_HAL_Driver/Src/stm32f3xx_hal_gpio.o
 .text          0x0000000000000000        0x0 build/Drivers/STM32F3xx_HAL_Driver/Src/stm32f3xx_hal_pcd.o
 .data          0x0000000000000000        0x0 build/Drivers/STM32F3xx_HAL_Driver/Src/stm32f3xx_hal_pcd.o
 .bss           0x0000000000000000        0x0 build/Drivers/STM32F3xx_HAL_Driver/Src/stm32f3xx_hal_pcd.o
 .text.HAL_PCD_MspInit
                0x0000000000000000        0x2 build/Drivers/STM32F3xx_HAL_Driver/Src/stm32f3xx_hal_pcd.o
 .text.HAL_PCD_MspDeInit
                0x0000000000000000        0x2 build/Drivers/STM32F3xx_HAL_Driver/Src/stm32f3xx_hal_pcd.o
 .text.HAL_PCD_Stop
                0x0000000000000000       0x2a build/Drivers/STM32F3xx_HAL_Driver/Src/stm32f3xx_hal_pcd.o
 .text.HAL_PCD_DeInit
                0x0000000000000000       0x22 build/Drivers/STM32F3xx_HAL_Driver/Src/stm32f3xx_hal_pcd.o
 .text.HAL_PCD_DataOutStageCallback
                0x0000000000000000        0x2 build/Drivers/STM32F3xx_HAL_Driver/Src/stm32f3xx_hal_pcd.o
 .text.HAL_PCD_DataInStageCallback
                0x0000000000000000        0x2 build/Drivers/STM32F3xx_HAL_Driver/Src/stm32f3xx_hal_pcd.o
 .text.HAL_PCD_SetupStageCallback
                0x0000000000000000        0x2 build/Drivers/STM32F3xx_HAL_Driver/Src/stm32f3xx_hal_pcd.o
 .text.HAL_PCD_SOFCallback
                0x0000000000000000        0x2 build/Drivers/STM32F3xx_HAL_Driver/Src/stm32f3xx_hal_pcd.o
 .text.HAL_PCD_ResetCallback
                0x0000000000000000        0x2 build/Drivers/STM32F3xx_HAL_Driver/Src/stm32f3xx_hal_pcd.o
 .text.HAL_PCD_SuspendCallback
                0x0000000000000000        0x2 build/Drivers/STM32F3xx_HAL_Driver/Src/stm32f3xx_hal_pcd.o
 .text.HAL_PCD_ResumeCallback
                0x0000000000000000        0x2 build/Drivers/STM32F3xx_HAL_Driver/Src/stm32f3xx_hal_pcd.o
 .text.HAL_PCD_ISOOUTIncompleteCallback
                0x0000000000000000        0x2 build/Drivers/STM32F3xx_HAL_Driver/Src/stm32f3xx_hal_pcd.o
 .text.HAL_PCD_ISOINIncompleteCallback
                0x0000000000000000        0x2 build/Drivers/STM32F3xx_HAL_Driver/Src/stm32f3xx_hal_pcd.o
 .text.HAL_PCD_ConnectCallback
                0x0000000000000000        0x2 build/Drivers/STM32F3xx_HAL_Driver/Src/stm32f3xx_hal_pcd.o
 .text.HAL_PCD_DisconnectCallback
                0x0000000000000000        0x2 build/Drivers/STM32F3xx_HAL_Driver/Src/stm32f3xx_hal_pcd.o
 .text.HAL_PCD_DevConnect
                0x0000000000000000       0x22 build/Drivers/STM32F3xx_HAL_Driver/Src/stm32f3xx_hal_pcd.o
 .text.HAL_PCD_DevDisconnect
                0x0000000000000000       0x24 build/Drivers/STM32F3xx_HAL_Driver/Src/stm32f3xx_hal_pcd.o
 .text.HAL_PCD_EP_Flush
                0x0000000000000000        0x4 build/Drivers/STM32F3xx_HAL_Driver/Src/stm32f3xx_hal_pcd.o
 .text.HAL_PCD_ActiveRemoteWakeup
                0x0000000000000000       0x14 build/Drivers/STM32F3xx_HAL_Driver/Src/stm32f3xx_hal_pcd.o
 .text.HAL_PCD_DeActiveRemoteWakeup
                0x0000000000000000       0x16 build/Drivers/STM32F3xx_HAL_Driver/Src/stm32f3xx_hal_pcd.o
 .text.HAL_PCD_GetState
                0x0000000000000000        0x6 build/Drivers/STM32F3xx_HAL_Driver/Src/stm32f3xx_hal_pcd.o
 .text          0x0000000000000000        0x0 build/Drivers/STM32F3xx_HAL_Driver/Src/stm32f3xx_hal_pcd_ex.o
 .data          0x0000000000000000        0x0 build/Drivers/STM32F3xx_HAL_Driver/Src/stm32f3xx_hal_pcd_ex.o
 .bss           0x0000000000000000        0x0 build/Drivers/STM32F3xx_HAL_Driver/Src/stm32f3xx_hal_pcd_ex.o
 .text          0x0000000000000000        0x0 build/Drivers/STM32F3xx_HAL_Driver/Src/stm32f3xx_hal_i2c.o
 .data          0x0000000000000000        0x0 build/Drivers/STM32F3xx_HAL_Driver/Src/stm32f3xx_hal_i2c.o
 .bss           0x0000000000000000        0x0 build/Drivers/STM32F3xx_HAL_Driver/Src/stm32f3xx_hal_i2c.o
 .text.HAL_I2C_Master_Transmit
                0x0000000000000000       0xdc build/Drivers/STM32F3xx_HAL_Driver/Src/stm32f3xx_hal_i2c.o
 .text.HAL_I2C_Master_Receive
                0x0000000000000000       0xdc build/Drivers/STM32F3xx_HAL_Driver/Src/stm32f3xx_hal_i2c.o
 .text.HAL_I2C_Slave_Transmit
                0x0000000000000000      0x128 build/Drivers/STM32F3xx_HAL_Driver/Src/stm32f3xx_hal_i2c.o
 .text.HAL_I2C_Slave_Receive
                0x0000000000000000      0x164 build/Drivers/STM32F3xx_HAL_Driver/Src/stm32f3xx_hal_i2c.o
 .text.HAL_I2C_Master_Transmit_IT
                0x0000000000000000       0x8a build/Drivers/STM32F3xx_HAL_Driver/Src/stm32f3xx_hal_i2c.o
 .text.HAL_I2C_Master_Receive_IT
                0x0000000000000000       0x8a build/Drivers/STM32F3xx_HAL_Driver/Src/stm32f3xx_hal_i2c.o
 .text.HAL_I2C_Slave_Transmit_IT
                0x0000000000000000       0x4a build/Drivers/STM32F3xx_HAL_Driver/Src/stm32f3xx_hal_i2c.o
 .text.HAL_I2C_Slave_Receive_IT
                0x0000000000000000       0x4a build/Drivers/STM32F3xx_HAL_Driver/Src/stm32f3xx_hal_i2c.o
 .text.HAL_I2C_Master_Transmit_DMA
                0x0000000000000000       0xcc build/Drivers/STM32F3xx_HAL_Driver/Src/stm32f3xx_hal_i2c.o
 .text.HAL_I2C_Master_Receive_DMA
                0x0000000000000000       0xbc build/Drivers/STM32F3xx_HAL_Driver/Src/stm32f3xx_hal_i2c.o
 .text.HAL_I2C_Slave_Transmit_DMA
                0x0000000000000000       0xbc build/Drivers/STM32F3xx_HAL_Driver/Src/stm32f3xx_hal_i2c.o
 .text.HAL_I2C_Slave_Receive_DMA
                0x0000000000000000       0xa8 build/Drivers/STM32F3xx_HAL_Driver/Src/stm32f3xx_hal_i2c.o
 .text.HAL_I2C_Mem_Write_IT
                0x0000000000000000       0xba build/Drivers/STM32F3xx_HAL_Driver/Src/stm32f3xx_hal_i2c.o
 .text.HAL_I2C_Mem_Read_IT
                0x0000000000000000       0xb8 build/Drivers/STM32F3xx_HAL_Driver/Src/stm32f3xx_hal_i2c.o
 .text.HAL_I2C_Mem_Write_DMA
                0x0000000000000000       0xec build/Drivers/STM32F3xx_HAL_Driver/Src/stm32f3xx_hal_i2c.o
 .text.HAL_I2C_Mem_Read_DMA
                0x0000000000000000       0xec build/Drivers/STM32F3xx_HAL_Driver/Src/stm32f3xx_hal_i2c.o
 .text.HAL_I2C_IsDeviceReady
                0x0000000000000000      0x10e build/Drivers/STM32F3xx_HAL_Driver/Src/stm32f3xx_hal_i2c.o
 .text.HAL_I2C_MasterTxCpltCallback
                0x0000000000000000        0x2 build/Drivers/STM32F3xx_HAL_Driver/Src/stm32f3xx_hal_i2c.o
 .text.HAL_I2C_MasterRxCpltCallback
                0x0000000000000000        0x2 build/Drivers/STM32F3xx_HAL_Driver/Src/stm32f3xx_hal_i2c.o
 .text.HAL_I2C_SlaveTxCpltCallback
                0x0000000000000000        0x2 build/Drivers/STM32F3xx_HAL_Driver/Src/stm32f3xx_hal_i2c.o
 .text.HAL_I2C_SlaveRxCpltCallback
                0x0000000000000000        0x2 build/Drivers/STM32F3xx_HAL_Driver/Src/stm32f3xx_hal_i2c.o
 .text.HAL_I2C_MemTxCpltCallback
                0x0000000000000000        0x2 build/Drivers/STM32F3xx_HAL_Driver/Src/stm32f3xx_hal_i2c.o
 .text.HAL_I2C_MemRxCpltCallback
                0x0000000000000000        0x2 build/Drivers/STM32F3xx_HAL_Driver/Src/stm32f3xx_hal_i2c.o
 .text.HAL_I2C_ErrorCallback
                0x0000000000000000        0x2 build/Drivers/STM32F3xx_HAL_Driver/Src/stm32f3xx_hal_i2c.o
 .text.I2C_DMAError
                0x0000000000000000       0x2a build/Drivers/STM32F3xx_HAL_Driver/Src/stm32f3xx_hal_i2c.o
 .text.I2C_DMAMasterTransmitCplt
                0x0000000000000000      0x14c build/Drivers/STM32F3xx_HAL_Driver/Src/stm32f3xx_hal_i2c.o
 .text.I2C_DMAMasterReceiveCplt
                0x0000000000000000      0x160 build/Drivers/STM32F3xx_HAL_Driver/Src/stm32f3xx_hal_i2c.o
 .text.I2C_DMASlaveTransmitCplt
                0x0000000000000000       0x6e build/Drivers/STM32F3xx_HAL_Driver/Src/stm32f3xx_hal_i2c.o
 .text.I2C_DMASlaveReceiveCplt
                0x0000000000000000       0x78 build/Drivers/STM32F3xx_HAL_Driver/Src/stm32f3xx_hal_i2c.o
 .text.I2C_DMAMemTransmitCplt
                0x0000000000000000      0x14c build/Drivers/STM32F3xx_HAL_Driver/Src/stm32f3xx_hal_i2c.o
 .text.I2C_DMAMemReceiveCplt
                0x0000000000000000      0x160 build/Drivers/STM32F3xx_HAL_Driver/Src/stm32f3xx_hal_i2c.o
 .text.HAL_I2C_EV_IRQHandler
                0x0000000000000000      0x428 build/Drivers/STM32F3xx_HAL_Driver/Src/stm32f3xx_hal_i2c.o
 .text.HAL_I2C_ER_IRQHandler
                0x0000000000000000       0x76 build/Drivers/STM32F3xx_HAL_Driver/Src/stm32f3xx_hal_i2c.o
 .text.HAL_I2C_GetError
                0x0000000000000000        0x6 build/Drivers/STM32F3xx_HAL_Driver/Src/stm32f3xx_hal_i2c.o
 .text          0x0000000000000000        0x0 build/Drivers/STM32F3xx_HAL_Driver/Src/stm32f3xx_hal_spi.o
 .data          0x0000000000000000        0x0 build/Drivers/STM32F3xx_HAL_Driver/Src/stm32f3xx_hal_spi.o
 .bss           0x0000000000000000        0x0 build/Drivers/STM32F3xx_HAL_Driver/Src/stm32f3xx_hal_spi.o
 .text.SPI_EndRxTransaction
                0x0000000000000000       0x54 build/Drivers/STM32F3xx_HAL_Driver/Src/stm32f3xx_hal_spi.o
 .text.HAL_SPI_Transmit
                0x0000000000000000      0x140 build/Drivers/STM32F3xx_HAL_Driver/Src/stm32f3xx_hal_spi.o
 .text.HAL_SPI_Receive
                0x0000000000000000      0x214 build/Drivers/STM32F3xx_HAL_Driver/Src/stm32f3xx_hal_spi.o
 .text.HAL_SPI_Transmit_IT
                0x0000000000000000       0xa8 build/Drivers/STM32F3xx_HAL_Driver/Src/stm32f3xx_hal_spi.o
 .text.HAL_SPI_TransmitReceive_IT
                0x0000000000000000      0x104 build/Drivers/STM32F3xx_HAL_Driver/Src/stm32f3xx_hal_spi.o
 .text.HAL_SPI_Receive_IT
                0x0000000000000000       0xf8 build/Drivers/STM32F3xx_HAL_Driver/Src/stm32f3xx_hal_spi.o
 .text.HAL_SPI_Transmit_DMA
                0x0000000000000000       0xe4 build/Drivers/STM32F3xx_HAL_Driver/Src/stm32f3xx_hal_spi.o
 .text.HAL_SPI_TransmitReceive_DMA
                0x0000000000000000      0x178 build/Drivers/STM32F3xx_HAL_Driver/Src/stm32f3xx_hal_spi.o
 .text.HAL_SPI_Receive_DMA
                0x0000000000000000      0x100 build/Drivers/STM32F3xx_HAL_Driver/Src/stm32f3xx_hal_spi.o
 .text.HAL_SPI_TxCpltCallback
                0x0000000000000000        0x2 build/Drivers/STM32F3xx_HAL_Driver/Src/stm32f3xx_hal_spi.o
 .text.HAL_SPI_RxCpltCallback
                0x0000000000000000        0x2 build/Drivers/STM32F3xx_HAL_Driver/Src/stm32f3xx_hal_spi.o
 .text.HAL_SPI_TxRxCpltCallback
                0x0000000000000000        0x2 build/Drivers/STM32F3xx_HAL_Driver/Src/stm32f3xx_hal_spi.o
 .text.HAL_SPI_ErrorCallback
                0x0000000000000000        0x2 build/Drivers/STM32F3xx_HAL_Driver/Src/stm32f3xx_hal_spi.o
 .text.SPI_CloseTx_ISR
                0x0000000000000000       0x38 build/Drivers/STM32F3xx_HAL_Driver/Src/stm32f3xx_hal_spi.o
 .text.SPI_TxISR_8BIT
                0x0000000000000000       0x2e build/Drivers/STM32F3xx_HAL_Driver/Src/stm32f3xx_hal_spi.o
 .text.SPI_TxISR_16BIT
                0x0000000000000000       0x2c build/Drivers/STM32F3xx_HAL_Driver/Src/stm32f3xx_hal_spi.o
 .text.SPI_CloseRx_ISR
                0x0000000000000000       0x4a build/Drivers/STM32F3xx_HAL_Driver/Src/stm32f3xx_hal_spi.o
 .text.SPI_RxISR_8BIT
                0x0000000000000000       0x4c build/Drivers/STM32F3xx_HAL_Driver/Src/stm32f3xx_hal_spi.o
 .text.SPI_RxISR_8BITCRC
                0x0000000000000000       0x1e build/Drivers/STM32F3xx_HAL_Driver/Src/stm32f3xx_hal_spi.o
 .text.SPI_RxISR_16BIT
                0x0000000000000000       0x50 build/Drivers/STM32F3xx_HAL_Driver/Src/stm32f3xx_hal_spi.o
 .text.SPI_RxISR_16BITCRC
                0x0000000000000000       0x1e build/Drivers/STM32F3xx_HAL_Driver/Src/stm32f3xx_hal_spi.o
 .text.SPI_CloseRxTx_ISR
                0x0000000000000000       0x4a build/Drivers/STM32F3xx_HAL_Driver/Src/stm32f3xx_hal_spi.o
 .text.SPI_2linesTxISR_8BIT
                0x0000000000000000       0x5a build/Drivers/STM32F3xx_HAL_Driver/Src/stm32f3xx_hal_spi.o
 .text.SPI_2linesRxISR_8BIT
                0x0000000000000000       0x6c build/Drivers/STM32F3xx_HAL_Driver/Src/stm32f3xx_hal_spi.o
 .text.SPI_2linesRxISR_8BITCRC
                0x0000000000000000       0x2a build/Drivers/STM32F3xx_HAL_Driver/Src/stm32f3xx_hal_spi.o
 .text.SPI_2linesTxISR_16BIT
                0x0000000000000000       0x3a build/Drivers/STM32F3xx_HAL_Driver/Src/stm32f3xx_hal_spi.o
 .text.SPI_2linesRxISR_16BIT
                0x0000000000000000       0x44 build/Drivers/STM32F3xx_HAL_Driver/Src/stm32f3xx_hal_spi.o
 .text.SPI_2linesRxISR_16BITCRC
                0x0000000000000000       0x1e build/Drivers/STM32F3xx_HAL_Driver/Src/stm32f3xx_hal_spi.o
 .text.HAL_SPI_DMAError
                0x0000000000000000       0x24 build/Drivers/STM32F3xx_HAL_Driver/Src/stm32f3xx_hal_spi.o
 .text.HAL_SPI_DMATransmitCplt
                0x0000000000000000       0x58 build/Drivers/STM32F3xx_HAL_Driver/Src/stm32f3xx_hal_spi.o
 .text.HAL_SPI_DMAReceiveCplt
                0x0000000000000000       0xbc build/Drivers/STM32F3xx_HAL_Driver/Src/stm32f3xx_hal_spi.o
 .text.HAL_SPI_DMATransmitReceiveCplt
                0x0000000000000000       0xb4 build/Drivers/STM32F3xx_HAL_Driver/Src/stm32f3xx_hal_spi.o
 .text.HAL_SPI_IRQHandler
                0x0000000000000000       0x98 build/Drivers/STM32F3xx_HAL_Driver/Src/stm32f3xx_hal_spi.o
 .text          0x0000000000000000        0x0 build/Drivers/STM32_USB_Device_Library/Core/Src/usbd_core.o
 .data          0x0000000000000000        0x0 build/Drivers/STM32_USB_Device_Library/Core/Src/usbd_core.o
 .bss           0x0000000000000000        0x0 build/Drivers/STM32_USB_Device_Library/Core/Src/usbd_core.o
 .text.USBD_DeInit
                0x0000000000000000       0x24 build/Drivers/STM32_USB_Device_Library/Core/Src/usbd_core.o
 .text.USBD_Stop
                0x0000000000000000       0x18 build/Drivers/STM32_USB_Device_Library/Core/Src/usbd_core.o
 .text.USBD_RunTestMode
                0x0000000000000000        0x4 build/Drivers/STM32_USB_Device_Library/Core/Src/usbd_core.o
 .text.USBD_LL_Suspend
                0x0000000000000000       0x12 build/Drivers/STM32_USB_Device_Library/Core/Src/usbd_core.o
 .text.USBD_LL_Resume
                0x0000000000000000        0xc build/Drivers/STM32_USB_Device_Library/Core/Src/usbd_core.o
 .text.USBD_LL_IsoINIncomplete
                0x0000000000000000        0x4 build/Drivers/STM32_USB_Device_Library/Core/Src/usbd_core.o
 .text.USBD_LL_IsoOUTIncomplete
                0x0000000000000000        0x4 build/Drivers/STM32_USB_Device_Library/Core/Src/usbd_core.o
 .text.USBD_LL_DevConnected
                0x0000000000000000        0x4 build/Drivers/STM32_USB_Device_Library/Core/Src/usbd_core.o
 .text.USBD_LL_DevDisconnected
                0x0000000000000000       0x16 build/Drivers/STM32_USB_Device_Library/Core/Src/usbd_core.o
 .text          0x0000000000000000        0x0 build/Drivers/STM32_USB_Device_Library/Core/Src/usbd_ctlreq.o
 .data          0x0000000000000000        0x0 build/Drivers/STM32_USB_Device_Library/Core/Src/usbd_ctlreq.o
 .bss           0x0000000000000000        0x0 build/Drivers/STM32_USB_Device_Library/Core/Src/usbd_ctlreq.o
 .text          0x0000000000000000        0x0 build/Drivers/STM32_USB_Device_Library/Core/Src/usbd_ioreq.o
 .data          0x0000000000000000        0x0 build/Drivers/STM32_USB_Device_Library/Core/Src/usbd_ioreq.o
 .bss           0x0000000000000000        0x0 build/Drivers/STM32_USB_Device_Library/Core/Src/usbd_ioreq.o
 .text.USBD_GetRxCount
                0x0000000000000000        0xa build/Drivers/STM32_USB_Device_Library/Core/Src/usbd_ioreq.o
 .text          0x0000000000000000        0x0 build/Drivers/STM32_USB_Device_Library/Class/CDC/Src/usbd_cdc.o
 .data          0x0000000000000000        0x0 build/Drivers/STM32_USB_Device_Library/Class/CDC/Src/usbd_cdc.o
 .bss           0x0000000000000000        0x0 build/Drivers/STM32_USB_Device_Library/Class/CDC/Src/usbd_cdc.o
 .text          0x0000000000000000        0x0 build/usbd_conf.o
 .data          0x0000000000000000        0x0 build/usbd_conf.o
 .bss           0x0000000000000000        0x0 build/usbd_conf.o
 .text.HAL_PCD_MspDeInit
                0x0000000000000000       0x18 build/usbd_conf.o
 .text.HAL_PCD_ISOOUTIncompleteCallback
                0x0000000000000000        0x8 build/usbd_conf.o
 .text.HAL_PCD_ISOINIncompleteCallback
                0x0000000000000000        0x8 build/usbd_conf.o
 .text.HAL_PCD_ConnectCallback
                0x0000000000000000        0x8 build/usbd_conf.o
 .text.HAL_PCD_DisconnectCallback
                0x0000000000000000        0x8 build/usbd_conf.o
 .text.USBD_LL_DeInit
                0x0000000000000000        0xe build/usbd_conf.o
 .text.USBD_LL_Stop
                0x0000000000000000        0xe build/usbd_conf.o
 .text.USBD_LL_FlushEP
                0x0000000000000000        0xe build/usbd_conf.o
 .text.USBD_LL_Delay
                0x0000000000000000        0x4 build/usbd_conf.o
 .text          0x0000000000000000        0x0 build/usbd_desc.o
 .data          0x0000000000000000        0x0 build/usbd_desc.o
 .bss           0x0000000000000000        0x0 build/usbd_desc.o
 .text          0x0000000000000000        0x0 build/usbd_cdc_interface.o
 .data          0x0000000000000000        0x0 build/usbd_cdc_interface.o
 .bss           0x0000000000000000        0x0 build/usbd_cdc_interface.o
 .bss.UserTxBufPtrIn
                0x0000000000000000        0x4 build/usbd_cdc_interface.o
 .bss.UserTxBufPtrOut
                0x0000000000000000        0x4 build/usbd_cdc_interface.o
 .text          0x0000000000000000        0x0 build/Drivers/BSP/STM32F3-Discovery/stm32f3_discovery.o
 .data          0x0000000000000000        0x0 build/Drivers/BSP/STM32F3-Discovery/stm32f3_discovery.o
 .bss           0x0000000000000000        0x0 build/Drivers/BSP/STM32F3-Discovery/stm32f3_discovery.o
 .text.BSP_GetVersion
                0x0000000000000000        0x8 build/Drivers/BSP/STM32F3-Discovery/stm32f3_discovery.o
 .rodata.BUTTON_IRQn
                0x0000000000000000        0x1 build/Drivers/BSP/STM32F3-Discovery/stm32f3_discovery.o
 .rodata.BUTTON_PIN
                0x0000000000000000        0x2 build/Drivers/BSP/STM32F3-Discovery/stm32f3_discovery.o
 .text          0x0000000000000000        0x0 build/Drivers/BSP/STM32F3-Discovery/stm32f3_discovery_accelerometer.o
 .data          0x0000000000000000        0x0 build/Drivers/BSP/STM32F3-Discovery/stm32f3_discovery_accelerometer.o
 .bss           0x0000000000000000        0x0 build/Drivers/BSP/STM32F3-Discovery/stm32f3_discovery_accelerometer.o
 .text.BSP_ACCELERO_Reset
                0x0000000000000000       0x10 build/Drivers/BSP/STM32F3-Discovery/stm32f3_discovery_accelerometer.o
 .text          0x0000000000000000        0x0 build/Drivers/BSP/STM32F3-Discovery/stm32f3_discovery_gyroscope.o
 .data          0x0000000000000000        0x0 build/Drivers/BSP/STM32F3-Discovery/stm32f3_discovery_gyroscope.o
 .bss           0x0000000000000000        0x0 build/Drivers/BSP/STM32F3-Discovery/stm32f3_discovery_gyroscope.o
 .text.BSP_GYRO_ReadID
                0x0000000000000000       0x10 build/Drivers/BSP/STM32F3-Discovery/stm32f3_discovery_gyroscope.o
 .text.BSP_GYRO_Reset
                0x0000000000000000       0x10 build/Drivers/BSP/STM32F3-Discovery/stm32f3_discovery_gyroscope.o
 .text.BSP_GYRO_ITConfig
                0x0000000000000000       0x1c build/Drivers/BSP/STM32F3-Discovery/stm32f3_discovery_gyroscope.o
 .text.BSP_GYRO_EnableIT
                0x0000000000000000       0x10 build/Drivers/BSP/STM32F3-Discovery/stm32f3_discovery_gyroscope.o
 .text.BSP_GYRO_DisableIT
                0x0000000000000000       0x10 build/Drivers/BSP/STM32F3-Discovery/stm32f3_discovery_gyroscope.o
 .text          0x0000000000000000        0x0 build/Drivers/BSP/Components/lsm303dlhc/lsm303dlhc.o
 .data          0x0000000000000000        0x0 build/Drivers/BSP/Components/lsm303dlhc/lsm303dlhc.o
 .bss           0x0000000000000000        0x0 build/Drivers/BSP/Components/lsm303dlhc/lsm303dlhc.o
 .text.LSM303DLHC_AccIT1Disable
                0x0000000000000000       0x1e build/Drivers/BSP/Components/lsm303dlhc/lsm303dlhc.o
 .text.LSM303DLHC_AccIT2Enable
                0x0000000000000000       0x1e build/Drivers/BSP/Components/lsm303dlhc/lsm303dlhc.o
 .text.LSM303DLHC_AccIT2Disable
                0x0000000000000000       0x1e build/Drivers/BSP/Components/lsm303dlhc/lsm303dlhc.o
 .text.LSM303DLHC_AccINT1InterruptEnable
                0x0000000000000000       0x22 build/Drivers/BSP/Components/lsm303dlhc/lsm303dlhc.o
 .text.LSM303DLHC_AccINT1InterruptDisable
                0x0000000000000000       0x24 build/Drivers/BSP/Components/lsm303dlhc/lsm303dlhc.o
 .text.LSM303DLHC_AccINT2InterruptEnable
                0x0000000000000000       0x22 build/Drivers/BSP/Components/lsm303dlhc/lsm303dlhc.o
 .text.LSM303DLHC_AccINT2InterruptDisable
                0x0000000000000000       0x24 build/Drivers/BSP/Components/lsm303dlhc/lsm303dlhc.o
 .text.LSM303DLHC_AccClickITDisable
                0x0000000000000000       0x1e build/Drivers/BSP/Components/lsm303dlhc/lsm303dlhc.o
 .bss.tmpregcfgA
                0x0000000000000000        0x1 build/Drivers/BSP/Components/lsm303dlhc/lsm303dlhc.o
 .bss.tmpreg2A  0x0000000000000000        0x8 build/Drivers/BSP/Components/lsm303dlhc/lsm303dlhc.o
 .bss.tmpreg3A  0x0000000000000000        0x1 build/Drivers/BSP/Components/lsm303dlhc/lsm303dlhc.o
 .text          0x0000000000000000        0x0 build/Drivers/BSP/Components/l3gd20/l3gd20.o
 .data          0x0000000000000000        0x0 build/Drivers/BSP/Components/l3gd20/l3gd20.o
 .bss           0x0000000000000000        0x0 build/Drivers/BSP/Components/l3gd20/l3gd20.o
 .text.L3GD20_GetDataStatus
                0x0000000000000000       0x18 build/Drivers/BSP/Components/l3gd20/l3gd20.o
 .text          0x0000000000000000       0x14 build/Drivers/CMSIS/Device/ST/STM32F3xx/Source/Templates/gcc/startup_stm32f303xc.o
 .data          0x0000000000000000        0x0 build/Drivers/CMSIS/Device/ST/STM32F3xx/Source/Templates/gcc/startup_stm32f303xc.o
 .bss           0x0000000000000000        0x0 build/Drivers/CMSIS/Device/ST/STM32F3xx/Source/Templates/gcc/startup_stm32f303xc.o
 .text          0x0000000000000000        0x0 /usr/lib/gcc/arm-none-eabi/4.9.3/../../../arm-none-eabi/lib/armv7e-m/fpu/libg.a(lib_a-atexit.o)
 .data          0x0000000000000000        0x0 /usr/lib/gcc/arm-none-eabi/4.9.3/../../../arm-none-eabi/lib/armv7e-m/fpu/libg.a(lib_a-atexit.o)
 .bss           0x0000000000000000        0x0 /usr/lib/gcc/arm-none-eabi/4.9.3/../../../arm-none-eabi/lib/armv7e-m/fpu/libg.a(lib_a-atexit.o)
 .text          0x0000000000000000        0x0 /usr/lib/gcc/arm-none-eabi/4.9.3/../../../arm-none-eabi/lib/armv7e-m/fpu/libg.a(lib_a-ctype_.o)
 .data          0x0000000000000000        0x0 /usr/lib/gcc/arm-none-eabi/4.9.3/../../../arm-none-eabi/lib/armv7e-m/fpu/libg.a(lib_a-ctype_.o)
 .bss           0x0000000000000000        0x0 /usr/lib/gcc/arm-none-eabi/4.9.3/../../../arm-none-eabi/lib/armv7e-m/fpu/libg.a(lib_a-ctype_.o)
 .text          0x0000000000000000        0x0 /usr/lib/gcc/arm-none-eabi/4.9.3/../../../arm-none-eabi/lib/armv7e-m/fpu/libg.a(lib_a-errno.o)
 .data          0x0000000000000000        0x0 /usr/lib/gcc/arm-none-eabi/4.9.3/../../../arm-none-eabi/lib/armv7e-m/fpu/libg.a(lib_a-errno.o)
 .bss           0x0000000000000000        0x0 /usr/lib/gcc/arm-none-eabi/4.9.3/../../../arm-none-eabi/lib/armv7e-m/fpu/libg.a(lib_a-errno.o)
 .text          0x0000000000000000        0x0 /usr/lib/gcc/arm-none-eabi/4.9.3/../../../arm-none-eabi/lib/armv7e-m/fpu/libg.a(lib_a-exit.o)
 .data          0x0000000000000000        0x0 /usr/lib/gcc/arm-none-eabi/4.9.3/../../../arm-none-eabi/lib/armv7e-m/fpu/libg.a(lib_a-exit.o)
 .bss           0x0000000000000000        0x0 /usr/lib/gcc/arm-none-eabi/4.9.3/../../../arm-none-eabi/lib/armv7e-m/fpu/libg.a(lib_a-exit.o)
 .text.exit     0x0000000000000000       0x20 /usr/lib/gcc/arm-none-eabi/4.9.3/../../../arm-none-eabi/lib/armv7e-m/fpu/libg.a(lib_a-exit.o)
 .debug_info    0x0000000000000000      0x8e4 /usr/lib/gcc/arm-none-eabi/4.9.3/../../../arm-none-eabi/lib/armv7e-m/fpu/libg.a(lib_a-exit.o)
 .debug_abbrev  0x0000000000000000      0x1e6 /usr/lib/gcc/arm-none-eabi/4.9.3/../../../arm-none-eabi/lib/armv7e-m/fpu/libg.a(lib_a-exit.o)
 .debug_loc     0x0000000000000000       0x1e /usr/lib/gcc/arm-none-eabi/4.9.3/../../../arm-none-eabi/lib/armv7e-m/fpu/libg.a(lib_a-exit.o)
 .debug_aranges
                0x0000000000000000       0x20 /usr/lib/gcc/arm-none-eabi/4.9.3/../../../arm-none-eabi/lib/armv7e-m/fpu/libg.a(lib_a-exit.o)
 .debug_ranges  0x0000000000000000       0x10 /usr/lib/gcc/arm-none-eabi/4.9.3/../../../arm-none-eabi/lib/armv7e-m/fpu/libg.a(lib_a-exit.o)
 .debug_line    0x0000000000000000      0x178 /usr/lib/gcc/arm-none-eabi/4.9.3/../../../arm-none-eabi/lib/armv7e-m/fpu/libg.a(lib_a-exit.o)
 .debug_str     0x0000000000000000      0x5e5 /usr/lib/gcc/arm-none-eabi/4.9.3/../../../arm-none-eabi/lib/armv7e-m/fpu/libg.a(lib_a-exit.o)
 .comment       0x0000000000000000       0x39 /usr/lib/gcc/arm-none-eabi/4.9.3/../../../arm-none-eabi/lib/armv7e-m/fpu/libg.a(lib_a-exit.o)
 .debug_frame   0x0000000000000000       0x28 /usr/lib/gcc/arm-none-eabi/4.9.3/../../../arm-none-eabi/lib/armv7e-m/fpu/libg.a(lib_a-exit.o)
 .ARM.attributes
                0x0000000000000000       0x34 /usr/lib/gcc/arm-none-eabi/4.9.3/../../../arm-none-eabi/lib/armv7e-m/fpu/libg.a(lib_a-exit.o)
 .text          0x0000000000000000        0x0 /usr/lib/gcc/arm-none-eabi/4.9.3/../../../arm-none-eabi/lib/armv7e-m/fpu/libg.a(lib_a-fini.o)
 .data          0x0000000000000000        0x0 /usr/lib/gcc/arm-none-eabi/4.9.3/../../../arm-none-eabi/lib/armv7e-m/fpu/libg.a(lib_a-fini.o)
 .bss           0x0000000000000000        0x0 /usr/lib/gcc/arm-none-eabi/4.9.3/../../../arm-none-eabi/lib/armv7e-m/fpu/libg.a(lib_a-fini.o)
 .text          0x0000000000000000        0x0 /usr/lib/gcc/arm-none-eabi/4.9.3/../../../arm-none-eabi/lib/armv7e-m/fpu/libg.a(lib_a-impure.o)
 .data          0x0000000000000000        0x0 /usr/lib/gcc/arm-none-eabi/4.9.3/../../../arm-none-eabi/lib/armv7e-m/fpu/libg.a(lib_a-impure.o)
 .bss           0x0000000000000000        0x0 /usr/lib/gcc/arm-none-eabi/4.9.3/../../../arm-none-eabi/lib/armv7e-m/fpu/libg.a(lib_a-impure.o)
 .text          0x0000000000000000        0x0 /usr/lib/gcc/arm-none-eabi/4.9.3/../../../arm-none-eabi/lib/armv7e-m/fpu/libg.a(lib_a-init.o)
 .data          0x0000000000000000        0x0 /usr/lib/gcc/arm-none-eabi/4.9.3/../../../arm-none-eabi/lib/armv7e-m/fpu/libg.a(lib_a-init.o)
 .bss           0x0000000000000000        0x0 /usr/lib/gcc/arm-none-eabi/4.9.3/../../../arm-none-eabi/lib/armv7e-m/fpu/libg.a(lib_a-init.o)
 .text          0x0000000000000000        0x0 /usr/lib/gcc/arm-none-eabi/4.9.3/../../../arm-none-eabi/lib/armv7e-m/fpu/libg.a(lib_a-memset.o)
 .data          0x0000000000000000        0x0 /usr/lib/gcc/arm-none-eabi/4.9.3/../../../arm-none-eabi/lib/armv7e-m/fpu/libg.a(lib_a-memset.o)
 .bss           0x0000000000000000        0x0 /usr/lib/gcc/arm-none-eabi/4.9.3/../../../arm-none-eabi/lib/armv7e-m/fpu/libg.a(lib_a-memset.o)
 .text          0x0000000000000000        0x0 /usr/lib/gcc/arm-none-eabi/4.9.3/../../../arm-none-eabi/lib/armv7e-m/fpu/libg.a(lib_a-printf.o)
 .data          0x0000000000000000        0x0 /usr/lib/gcc/arm-none-eabi/4.9.3/../../../arm-none-eabi/lib/armv7e-m/fpu/libg.a(lib_a-printf.o)
 .bss           0x0000000000000000        0x0 /usr/lib/gcc/arm-none-eabi/4.9.3/../../../arm-none-eabi/lib/armv7e-m/fpu/libg.a(lib_a-printf.o)
 .text._printf_r
                0x0000000000000000       0x20 /usr/lib/gcc/arm-none-eabi/4.9.3/../../../arm-none-eabi/lib/armv7e-m/fpu/libg.a(lib_a-printf.o)
 .text          0x0000000000000000        0x0 /usr/lib/gcc/arm-none-eabi/4.9.3/../../../arm-none-eabi/lib/armv7e-m/fpu/libg.a(lib_a-putchar.o)
 .data          0x0000000000000000        0x0 /usr/lib/gcc/arm-none-eabi/4.9.3/../../../arm-none-eabi/lib/armv7e-m/fpu/libg.a(lib_a-putchar.o)
 .bss           0x0000000000000000        0x0 /usr/lib/gcc/arm-none-eabi/4.9.3/../../../arm-none-eabi/lib/armv7e-m/fpu/libg.a(lib_a-putchar.o)
 .text._putchar_r
                0x0000000000000000        0x8 /usr/lib/gcc/arm-none-eabi/4.9.3/../../../arm-none-eabi/lib/armv7e-m/fpu/libg.a(lib_a-putchar.o)
 .text          0x0000000000000000        0x0 /usr/lib/gcc/arm-none-eabi/4.9.3/../../../arm-none-eabi/lib/armv7e-m/fpu/libg.a(lib_a-puts.o)
 .data          0x0000000000000000        0x0 /usr/lib/gcc/arm-none-eabi/4.9.3/../../../arm-none-eabi/lib/armv7e-m/fpu/libg.a(lib_a-puts.o)
 .bss           0x0000000000000000        0x0 /usr/lib/gcc/arm-none-eabi/4.9.3/../../../arm-none-eabi/lib/armv7e-m/fpu/libg.a(lib_a-puts.o)
 .text          0x0000000000000000        0x0 /usr/lib/gcc/arm-none-eabi/4.9.3/../../../arm-none-eabi/lib/armv7e-m/fpu/libg.a(lib_a-setvbuf.o)
 .data          0x0000000000000000        0x0 /usr/lib/gcc/arm-none-eabi/4.9.3/../../../arm-none-eabi/lib/armv7e-m/fpu/libg.a(lib_a-setvbuf.o)
 .bss           0x0000000000000000        0x0 /usr/lib/gcc/arm-none-eabi/4.9.3/../../../arm-none-eabi/lib/armv7e-m/fpu/libg.a(lib_a-setvbuf.o)
 .text          0x0000000000000000        0x0 /usr/lib/gcc/arm-none-eabi/4.9.3/../../../arm-none-eabi/lib/armv7e-m/fpu/libg.a(lib_a-strcasecmp.o)
 .data          0x0000000000000000        0x0 /usr/lib/gcc/arm-none-eabi/4.9.3/../../../arm-none-eabi/lib/armv7e-m/fpu/libg.a(lib_a-strcasecmp.o)
 .bss           0x0000000000000000        0x0 /usr/lib/gcc/arm-none-eabi/4.9.3/../../../arm-none-eabi/lib/armv7e-m/fpu/libg.a(lib_a-strcasecmp.o)
 .text          0x0000000000000000        0x0 /usr/lib/gcc/arm-none-eabi/4.9.3/../../../arm-none-eabi/lib/armv7e-m/fpu/libg.a(lib_a-strcpy.o)
 .data          0x0000000000000000        0x0 /usr/lib/gcc/arm-none-eabi/4.9.3/../../../arm-none-eabi/lib/armv7e-m/fpu/libg.a(lib_a-strcpy.o)
 .bss           0x0000000000000000        0x0 /usr/lib/gcc/arm-none-eabi/4.9.3/../../../arm-none-eabi/lib/armv7e-m/fpu/libg.a(lib_a-strcpy.o)
 .text          0x0000000000000000        0x0 /usr/lib/gcc/arm-none-eabi/4.9.3/../../../arm-none-eabi/lib/armv7e-m/fpu/libg.a(lib_a-strlen.o)
 .data          0x0000000000000000        0x0 /usr/lib/gcc/arm-none-eabi/4.9.3/../../../arm-none-eabi/lib/armv7e-m/fpu/libg.a(lib_a-strlen.o)
 .bss           0x0000000000000000        0x0 /usr/lib/gcc/arm-none-eabi/4.9.3/../../../arm-none-eabi/lib/armv7e-m/fpu/libg.a(lib_a-strlen.o)
 .text          0x0000000000000000        0x0 /usr/lib/gcc/arm-none-eabi/4.9.3/../../../arm-none-eabi/lib/armv7e-m/fpu/libg.a(lib_a-strtok.o)
 .data          0x0000000000000000        0x0 /usr/lib/gcc/arm-none-eabi/4.9.3/../../../arm-none-eabi/lib/armv7e-m/fpu/libg.a(lib_a-strtok.o)
 .bss           0x0000000000000000        0x0 /usr/lib/gcc/arm-none-eabi/4.9.3/../../../arm-none-eabi/lib/armv7e-m/fpu/libg.a(lib_a-strtok.o)
 .text          0x0000000000000000        0x0 /usr/lib/gcc/arm-none-eabi/4.9.3/../../../arm-none-eabi/lib/armv7e-m/fpu/libg.a(lib_a-strtok_r.o)
 .data          0x0000000000000000        0x0 /usr/lib/gcc/arm-none-eabi/4.9.3/../../../arm-none-eabi/lib/armv7e-m/fpu/libg.a(lib_a-strtok_r.o)
 .bss           0x0000000000000000        0x0 /usr/lib/gcc/arm-none-eabi/4.9.3/../../../arm-none-eabi/lib/armv7e-m/fpu/libg.a(lib_a-strtok_r.o)
 .text.strtok_r
                0x0000000000000000        0x8 /usr/lib/gcc/arm-none-eabi/4.9.3/../../../arm-none-eabi/lib/armv7e-m/fpu/libg.a(lib_a-strtok_r.o)
 .text          0x0000000000000000        0x0 /usr/lib/gcc/arm-none-eabi/4.9.3/../../../arm-none-eabi/lib/armv7e-m/fpu/libg.a(lib_a-strtol.o)
 .data          0x0000000000000000        0x0 /usr/lib/gcc/arm-none-eabi/4.9.3/../../../arm-none-eabi/lib/armv7e-m/fpu/libg.a(lib_a-strtol.o)
 .bss           0x0000000000000000        0x0 /usr/lib/gcc/arm-none-eabi/4.9.3/../../../arm-none-eabi/lib/armv7e-m/fpu/libg.a(lib_a-strtol.o)
 .text._strtol_r
                0x0000000000000000      0x11c /usr/lib/gcc/arm-none-eabi/4.9.3/../../../arm-none-eabi/lib/armv7e-m/fpu/libg.a(lib_a-strtol.o)
 .text.strtol   0x0000000000000000       0x18 /usr/lib/gcc/arm-none-eabi/4.9.3/../../../arm-none-eabi/lib/armv7e-m/fpu/libg.a(lib_a-strtol.o)
 .debug_info    0x0000000000000000      0x9a7 /usr/lib/gcc/arm-none-eabi/4.9.3/../../../arm-none-eabi/lib/armv7e-m/fpu/libg.a(lib_a-strtol.o)
 .debug_abbrev  0x0000000000000000      0x207 /usr/lib/gcc/arm-none-eabi/4.9.3/../../../arm-none-eabi/lib/armv7e-m/fpu/libg.a(lib_a-strtol.o)
 .debug_loc     0x0000000000000000      0x33f /usr/lib/gcc/arm-none-eabi/4.9.3/../../../arm-none-eabi/lib/armv7e-m/fpu/libg.a(lib_a-strtol.o)
 .debug_aranges
                0x0000000000000000       0x28 /usr/lib/gcc/arm-none-eabi/4.9.3/../../../arm-none-eabi/lib/armv7e-m/fpu/libg.a(lib_a-strtol.o)
 .debug_ranges  0x0000000000000000       0x18 /usr/lib/gcc/arm-none-eabi/4.9.3/../../../arm-none-eabi/lib/armv7e-m/fpu/libg.a(lib_a-strtol.o)
 .debug_line    0x0000000000000000      0x1e8 /usr/lib/gcc/arm-none-eabi/4.9.3/../../../arm-none-eabi/lib/armv7e-m/fpu/libg.a(lib_a-strtol.o)
 .debug_str     0x0000000000000000      0x602 /usr/lib/gcc/arm-none-eabi/4.9.3/../../../arm-none-eabi/lib/armv7e-m/fpu/libg.a(lib_a-strtol.o)
 .comment       0x0000000000000000       0x39 /usr/lib/gcc/arm-none-eabi/4.9.3/../../../arm-none-eabi/lib/armv7e-m/fpu/libg.a(lib_a-strtol.o)
 .debug_frame   0x0000000000000000       0x54 /usr/lib/gcc/arm-none-eabi/4.9.3/../../../arm-none-eabi/lib/armv7e-m/fpu/libg.a(lib_a-strtol.o)
 .ARM.attributes
                0x0000000000000000       0x34 /usr/lib/gcc/arm-none-eabi/4.9.3/../../../arm-none-eabi/lib/armv7e-m/fpu/libg.a(lib_a-strtol.o)
 .text          0x0000000000000000        0x0 /usr/lib/gcc/arm-none-eabi/4.9.3/../../../arm-none-eabi/lib/armv7e-m/fpu/libg.a(lib_a-strtoul.o)
 .data          0x0000000000000000        0x0 /usr/lib/gcc/arm-none-eabi/4.9.3/../../../arm-none-eabi/lib/armv7e-m/fpu/libg.a(lib_a-strtoul.o)
 .bss           0x0000000000000000        0x0 /usr/lib/gcc/arm-none-eabi/4.9.3/../../../arm-none-eabi/lib/armv7e-m/fpu/libg.a(lib_a-strtoul.o)
 .text          0x0000000000000000        0x0 /usr/lib/gcc/arm-none-eabi/4.9.3/../../../arm-none-eabi/lib/armv7e-m/fpu/libg.a(lib_a-vfprintf.o)
 .data          0x0000000000000000        0x0 /usr/lib/gcc/arm-none-eabi/4.9.3/../../../arm-none-eabi/lib/armv7e-m/fpu/libg.a(lib_a-vfprintf.o)
 .bss           0x0000000000000000        0x0 /usr/lib/gcc/arm-none-eabi/4.9.3/../../../arm-none-eabi/lib/armv7e-m/fpu/libg.a(lib_a-vfprintf.o)
 .text.vfprintf
                0x0000000000000000       0x18 /usr/lib/gcc/arm-none-eabi/4.9.3/../../../arm-none-eabi/lib/armv7e-m/fpu/libg.a(lib_a-vfprintf.o)
 .text          0x0000000000000000        0x0 /usr/lib/gcc/arm-none-eabi/4.9.3/../../../arm-none-eabi/lib/armv7e-m/fpu/libg.a(lib_a-wsetup.o)
 .data          0x0000000000000000        0x0 /usr/lib/gcc/arm-none-eabi/4.9.3/../../../arm-none-eabi/lib/armv7e-m/fpu/libg.a(lib_a-wsetup.o)
 .bss           0x0000000000000000        0x0 /usr/lib/gcc/arm-none-eabi/4.9.3/../../../arm-none-eabi/lib/armv7e-m/fpu/libg.a(lib_a-wsetup.o)
 .text          0x0000000000000000        0x0 /usr/lib/gcc/arm-none-eabi/4.9.3/../../../arm-none-eabi/lib/armv7e-m/fpu/libg.a(lib_a-__atexit.o)
 .data          0x0000000000000000        0x0 /usr/lib/gcc/arm-none-eabi/4.9.3/../../../arm-none-eabi/lib/armv7e-m/fpu/libg.a(lib_a-__atexit.o)
 .bss           0x0000000000000000        0x0 /usr/lib/gcc/arm-none-eabi/4.9.3/../../../arm-none-eabi/lib/armv7e-m/fpu/libg.a(lib_a-__atexit.o)
 .text          0x0000000000000000        0x0 /usr/lib/gcc/arm-none-eabi/4.9.3/../../../arm-none-eabi/lib/armv7e-m/fpu/libg.a(lib_a-__call_atexit.o)
 .data          0x0000000000000000        0x0 /usr/lib/gcc/arm-none-eabi/4.9.3/../../../arm-none-eabi/lib/armv7e-m/fpu/libg.a(lib_a-__call_atexit.o)
 .bss           0x0000000000000000        0x0 /usr/lib/gcc/arm-none-eabi/4.9.3/../../../arm-none-eabi/lib/armv7e-m/fpu/libg.a(lib_a-__call_atexit.o)
 .text.__call_exitprocs
                0x0000000000000000       0xd4 /usr/lib/gcc/arm-none-eabi/4.9.3/../../../arm-none-eabi/lib/armv7e-m/fpu/libg.a(lib_a-__call_atexit.o)
 .text          0x0000000000000000        0x0 /usr/lib/gcc/arm-none-eabi/4.9.3/../../../arm-none-eabi/lib/armv7e-m/fpu/libg.a(lib_a-dtoa.o)
 .data          0x0000000000000000        0x0 /usr/lib/gcc/arm-none-eabi/4.9.3/../../../arm-none-eabi/lib/armv7e-m/fpu/libg.a(lib_a-dtoa.o)
 .bss           0x0000000000000000        0x0 /usr/lib/gcc/arm-none-eabi/4.9.3/../../../arm-none-eabi/lib/armv7e-m/fpu/libg.a(lib_a-dtoa.o)
 .text          0x0000000000000000        0x0 /usr/lib/gcc/arm-none-eabi/4.9.3/../../../arm-none-eabi/lib/armv7e-m/fpu/libg.a(lib_a-fflush.o)
 .data          0x0000000000000000        0x0 /usr/lib/gcc/arm-none-eabi/4.9.3/../../../arm-none-eabi/lib/armv7e-m/fpu/libg.a(lib_a-fflush.o)
 .bss           0x0000000000000000        0x0 /usr/lib/gcc/arm-none-eabi/4.9.3/../../../arm-none-eabi/lib/armv7e-m/fpu/libg.a(lib_a-fflush.o)
 .text.fflush   0x0000000000000000       0x24 /usr/lib/gcc/arm-none-eabi/4.9.3/../../../arm-none-eabi/lib/armv7e-m/fpu/libg.a(lib_a-fflush.o)
 .text          0x0000000000000000        0x0 /usr/lib/gcc/arm-none-eabi/4.9.3/../../../arm-none-eabi/lib/armv7e-m/fpu/libg.a(lib_a-findfp.o)
 .data          0x0000000000000000        0x0 /usr/lib/gcc/arm-none-eabi/4.9.3/../../../arm-none-eabi/lib/armv7e-m/fpu/libg.a(lib_a-findfp.o)
 .bss           0x0000000000000000        0x0 /usr/lib/gcc/arm-none-eabi/4.9.3/../../../arm-none-eabi/lib/armv7e-m/fpu/libg.a(lib_a-findfp.o)
 .text.__fp_lock
                0x0000000000000000        0x4 /usr/lib/gcc/arm-none-eabi/4.9.3/../../../arm-none-eabi/lib/armv7e-m/fpu/libg.a(lib_a-findfp.o)
 .text.__fp_unlock
                0x0000000000000000        0x4 /usr/lib/gcc/arm-none-eabi/4.9.3/../../../arm-none-eabi/lib/armv7e-m/fpu/libg.a(lib_a-findfp.o)
 .text.__sfmoreglue
                0x0000000000000000       0x30 /usr/lib/gcc/arm-none-eabi/4.9.3/../../../arm-none-eabi/lib/armv7e-m/fpu/libg.a(lib_a-findfp.o)
 .text.__sfp    0x0000000000000000       0x88 /usr/lib/gcc/arm-none-eabi/4.9.3/../../../arm-none-eabi/lib/armv7e-m/fpu/libg.a(lib_a-findfp.o)
 .text._cleanup
                0x0000000000000000       0x14 /usr/lib/gcc/arm-none-eabi/4.9.3/../../../arm-none-eabi/lib/armv7e-m/fpu/libg.a(lib_a-findfp.o)
 .text.__sinit_lock_acquire
                0x0000000000000000        0x4 /usr/lib/gcc/arm-none-eabi/4.9.3/../../../arm-none-eabi/lib/armv7e-m/fpu/libg.a(lib_a-findfp.o)
 .text.__sinit_lock_release
                0x0000000000000000        0x4 /usr/lib/gcc/arm-none-eabi/4.9.3/../../../arm-none-eabi/lib/armv7e-m/fpu/libg.a(lib_a-findfp.o)
 .text.__fp_lock_all
                0x0000000000000000       0x14 /usr/lib/gcc/arm-none-eabi/4.9.3/../../../arm-none-eabi/lib/armv7e-m/fpu/libg.a(lib_a-findfp.o)
 .text.__fp_unlock_all
                0x0000000000000000       0x14 /usr/lib/gcc/arm-none-eabi/4.9.3/../../../arm-none-eabi/lib/armv7e-m/fpu/libg.a(lib_a-findfp.o)
 .text          0x0000000000000000        0x0 /usr/lib/gcc/arm-none-eabi/4.9.3/../../../arm-none-eabi/lib/armv7e-m/fpu/libg.a(lib_a-freer.o)
 .data          0x0000000000000000        0x0 /usr/lib/gcc/arm-none-eabi/4.9.3/../../../arm-none-eabi/lib/armv7e-m/fpu/libg.a(lib_a-freer.o)
 .bss           0x0000000000000000        0x0 /usr/lib/gcc/arm-none-eabi/4.9.3/../../../arm-none-eabi/lib/armv7e-m/fpu/libg.a(lib_a-freer.o)
 .text          0x0000000000000000        0x0 /usr/lib/gcc/arm-none-eabi/4.9.3/../../../arm-none-eabi/lib/armv7e-m/fpu/libg.a(lib_a-fvwrite.o)
 .data          0x0000000000000000        0x0 /usr/lib/gcc/arm-none-eabi/4.9.3/../../../arm-none-eabi/lib/armv7e-m/fpu/libg.a(lib_a-fvwrite.o)
 .bss           0x0000000000000000        0x0 /usr/lib/gcc/arm-none-eabi/4.9.3/../../../arm-none-eabi/lib/armv7e-m/fpu/libg.a(lib_a-fvwrite.o)
 .text          0x0000000000000000        0x0 /usr/lib/gcc/arm-none-eabi/4.9.3/../../../arm-none-eabi/lib/armv7e-m/fpu/libg.a(lib_a-fwalk.o)
 .data          0x0000000000000000        0x0 /usr/lib/gcc/arm-none-eabi/4.9.3/../../../arm-none-eabi/lib/armv7e-m/fpu/libg.a(lib_a-fwalk.o)
 .bss           0x0000000000000000        0x0 /usr/lib/gcc/arm-none-eabi/4.9.3/../../../arm-none-eabi/lib/armv7e-m/fpu/libg.a(lib_a-fwalk.o)
 .text._fwalk   0x0000000000000000       0x4c /usr/lib/gcc/arm-none-eabi/4.9.3/../../../arm-none-eabi/lib/armv7e-m/fpu/libg.a(lib_a-fwalk.o)
 .text          0x0000000000000000        0x0 /usr/lib/gcc/arm-none-eabi/4.9.3/../../../arm-none-eabi/lib/armv7e-m/fpu/libg.a(lib_a-locale.o)
 .data          0x0000000000000000        0x0 /usr/lib/gcc/arm-none-eabi/4.9.3/../../../arm-none-eabi/lib/armv7e-m/fpu/libg.a(lib_a-locale.o)
 .bss           0x0000000000000000        0x0 /usr/lib/gcc/arm-none-eabi/4.9.3/../../../arm-none-eabi/lib/armv7e-m/fpu/libg.a(lib_a-locale.o)
 .text._setlocale_r
                0x0000000000000000       0x44 /usr/lib/gcc/arm-none-eabi/4.9.3/../../../arm-none-eabi/lib/armv7e-m/fpu/libg.a(lib_a-locale.o)
 .text.__locale_msgcharset
                0x0000000000000000        0x8 /usr/lib/gcc/arm-none-eabi/4.9.3/../../../arm-none-eabi/lib/armv7e-m/fpu/libg.a(lib_a-locale.o)
 .text.__locale_cjk_lang
                0x0000000000000000        0x4 /usr/lib/gcc/arm-none-eabi/4.9.3/../../../arm-none-eabi/lib/armv7e-m/fpu/libg.a(lib_a-locale.o)
 .text.setlocale
                0x0000000000000000       0x10 /usr/lib/gcc/arm-none-eabi/4.9.3/../../../arm-none-eabi/lib/armv7e-m/fpu/libg.a(lib_a-locale.o)
 .text.localeconv
                0x0000000000000000        0x8 /usr/lib/gcc/arm-none-eabi/4.9.3/../../../arm-none-eabi/lib/armv7e-m/fpu/libg.a(lib_a-locale.o)
 .data.lc_message_charset
                0x0000000000000000       0x20 /usr/lib/gcc/arm-none-eabi/4.9.3/../../../arm-none-eabi/lib/armv7e-m/fpu/libg.a(lib_a-locale.o)
 .bss._PathLocale
                0x0000000000000000        0x4 /usr/lib/gcc/arm-none-eabi/4.9.3/../../../arm-none-eabi/lib/armv7e-m/fpu/libg.a(lib_a-locale.o)
 .bss.__nlocale_changed
                0x0000000000000000        0x4 /usr/lib/gcc/arm-none-eabi/4.9.3/../../../arm-none-eabi/lib/armv7e-m/fpu/libg.a(lib_a-locale.o)
 .bss.__mlocale_changed
                0x0000000000000000        0x4 /usr/lib/gcc/arm-none-eabi/4.9.3/../../../arm-none-eabi/lib/armv7e-m/fpu/libg.a(lib_a-locale.o)
 .text          0x0000000000000000        0x0 /usr/lib/gcc/arm-none-eabi/4.9.3/../../../arm-none-eabi/lib/armv7e-m/fpu/libg.a(lib_a-makebuf.o)
 .data          0x0000000000000000        0x0 /usr/lib/gcc/arm-none-eabi/4.9.3/../../../arm-none-eabi/lib/armv7e-m/fpu/libg.a(lib_a-makebuf.o)
 .bss           0x0000000000000000        0x0 /usr/lib/gcc/arm-none-eabi/4.9.3/../../../arm-none-eabi/lib/armv7e-m/fpu/libg.a(lib_a-makebuf.o)
 .text          0x0000000000000000        0x0 /usr/lib/gcc/arm-none-eabi/4.9.3/../../../arm-none-eabi/lib/armv7e-m/fpu/libg.a(lib_a-malloc.o)
 .data          0x0000000000000000        0x0 /usr/lib/gcc/arm-none-eabi/4.9.3/../../../arm-none-eabi/lib/armv7e-m/fpu/libg.a(lib_a-malloc.o)
 .bss           0x0000000000000000        0x0 /usr/lib/gcc/arm-none-eabi/4.9.3/../../../arm-none-eabi/lib/armv7e-m/fpu/libg.a(lib_a-malloc.o)
 .text.free     0x0000000000000000       0x10 /usr/lib/gcc/arm-none-eabi/4.9.3/../../../arm-none-eabi/lib/armv7e-m/fpu/libg.a(lib_a-malloc.o)
 .text          0x0000000000000000        0x0 /usr/lib/gcc/arm-none-eabi/4.9.3/../../../arm-none-eabi/lib/armv7e-m/fpu/libg.a(lib_a-mallocr.o)
 .data          0x0000000000000000        0x0 /usr/lib/gcc/arm-none-eabi/4.9.3/../../../arm-none-eabi/lib/armv7e-m/fpu/libg.a(lib_a-mallocr.o)
 .bss           0x0000000000000000        0x0 /usr/lib/gcc/arm-none-eabi/4.9.3/../../../arm-none-eabi/lib/armv7e-m/fpu/libg.a(lib_a-mallocr.o)
 .text          0x0000000000000000        0x0 /usr/lib/gcc/arm-none-eabi/4.9.3/../../../arm-none-eabi/lib/armv7e-m/fpu/libg.a(lib_a-memchr.o)
 .data          0x0000000000000000        0x0 /usr/lib/gcc/arm-none-eabi/4.9.3/../../../arm-none-eabi/lib/armv7e-m/fpu/libg.a(lib_a-memchr.o)
 .bss           0x0000000000000000        0x0 /usr/lib/gcc/arm-none-eabi/4.9.3/../../../arm-none-eabi/lib/armv7e-m/fpu/libg.a(lib_a-memchr.o)
 .data          0x0000000000000000        0x0 /usr/lib/gcc/arm-none-eabi/4.9.3/../../../arm-none-eabi/lib/armv7e-m/fpu/libg.a(lib_a-memcpy.o)
 .bss           0x0000000000000000        0x0 /usr/lib/gcc/arm-none-eabi/4.9.3/../../../arm-none-eabi/lib/armv7e-m/fpu/libg.a(lib_a-memcpy.o)
 .text          0x0000000000000000        0x0 /usr/lib/gcc/arm-none-eabi/4.9.3/../../../arm-none-eabi/lib/armv7e-m/fpu/libg.a(lib_a-memmove.o)
 .data          0x0000000000000000        0x0 /usr/lib/gcc/arm-none-eabi/4.9.3/../../../arm-none-eabi/lib/armv7e-m/fpu/libg.a(lib_a-memmove.o)
 .bss           0x0000000000000000        0x0 /usr/lib/gcc/arm-none-eabi/4.9.3/../../../arm-none-eabi/lib/armv7e-m/fpu/libg.a(lib_a-memmove.o)
 .text          0x0000000000000000        0x0 /usr/lib/gcc/arm-none-eabi/4.9.3/../../../arm-none-eabi/lib/armv7e-m/fpu/libg.a(lib_a-mlock.o)
 .data          0x0000000000000000        0x0 /usr/lib/gcc/arm-none-eabi/4.9.3/../../../arm-none-eabi/lib/armv7e-m/fpu/libg.a(lib_a-mlock.o)
 .bss           0x0000000000000000        0x0 /usr/lib/gcc/arm-none-eabi/4.9.3/../../../arm-none-eabi/lib/armv7e-m/fpu/libg.a(lib_a-mlock.o)
 .text          0x0000000000000000        0x0 /usr/lib/gcc/arm-none-eabi/4.9.3/../../../arm-none-eabi/lib/armv7e-m/fpu/libg.a(lib_a-mprec.o)
 .data          0x0000000000000000        0x0 /usr/lib/gcc/arm-none-eabi/4.9.3/../../../arm-none-eabi/lib/armv7e-m/fpu/libg.a(lib_a-mprec.o)
 .bss           0x0000000000000000        0x0 /usr/lib/gcc/arm-none-eabi/4.9.3/../../../arm-none-eabi/lib/armv7e-m/fpu/libg.a(lib_a-mprec.o)
 .text.__s2b    0x0000000000000000       0x98 /usr/lib/gcc/arm-none-eabi/4.9.3/../../../arm-none-eabi/lib/armv7e-m/fpu/libg.a(lib_a-mprec.o)
 .text.__ulp    0x0000000000000000       0x50 /usr/lib/gcc/arm-none-eabi/4.9.3/../../../arm-none-eabi/lib/armv7e-m/fpu/libg.a(lib_a-mprec.o)
 .text.__b2d    0x0000000000000000       0xc4 /usr/lib/gcc/arm-none-eabi/4.9.3/../../../arm-none-eabi/lib/armv7e-m/fpu/libg.a(lib_a-mprec.o)
 .text.__ratio  0x0000000000000000       0x60 /usr/lib/gcc/arm-none-eabi/4.9.3/../../../arm-none-eabi/lib/armv7e-m/fpu/libg.a(lib_a-mprec.o)
 .text._mprec_log10
                0x0000000000000000       0x38 /usr/lib/gcc/arm-none-eabi/4.9.3/../../../arm-none-eabi/lib/armv7e-m/fpu/libg.a(lib_a-mprec.o)
 .text.__copybits
                0x0000000000000000       0x48 /usr/lib/gcc/arm-none-eabi/4.9.3/../../../arm-none-eabi/lib/armv7e-m/fpu/libg.a(lib_a-mprec.o)
 .text.__any_on
                0x0000000000000000       0x60 /usr/lib/gcc/arm-none-eabi/4.9.3/../../../arm-none-eabi/lib/armv7e-m/fpu/libg.a(lib_a-mprec.o)
 .rodata.__mprec_tinytens
                0x0000000000000000       0x28 /usr/lib/gcc/arm-none-eabi/4.9.3/../../../arm-none-eabi/lib/armv7e-m/fpu/libg.a(lib_a-mprec.o)
 .text          0x0000000000000000        0x0 /usr/lib/gcc/arm-none-eabi/4.9.3/../../../arm-none-eabi/lib/armv7e-m/fpu/libg.a(lib_a-putc.o)
 .data          0x0000000000000000        0x0 /usr/lib/gcc/arm-none-eabi/4.9.3/../../../arm-none-eabi/lib/armv7e-m/fpu/libg.a(lib_a-putc.o)
 .bss           0x0000000000000000        0x0 /usr/lib/gcc/arm-none-eabi/4.9.3/../../../arm-none-eabi/lib/armv7e-m/fpu/libg.a(lib_a-putc.o)
 .text.putc     0x0000000000000000       0x60 /usr/lib/gcc/arm-none-eabi/4.9.3/../../../arm-none-eabi/lib/armv7e-m/fpu/libg.a(lib_a-putc.o)
 .text          0x0000000000000000        0x0 /usr/lib/gcc/arm-none-eabi/4.9.3/../../../arm-none-eabi/lib/armv7e-m/fpu/libg.a(lib_a-reallocr.o)
 .data          0x0000000000000000        0x0 /usr/lib/gcc/arm-none-eabi/4.9.3/../../../arm-none-eabi/lib/armv7e-m/fpu/libg.a(lib_a-reallocr.o)
 .bss           0x0000000000000000        0x0 /usr/lib/gcc/arm-none-eabi/4.9.3/../../../arm-none-eabi/lib/armv7e-m/fpu/libg.a(lib_a-reallocr.o)
 .text          0x0000000000000000        0x0 /usr/lib/gcc/arm-none-eabi/4.9.3/../../../arm-none-eabi/lib/armv7e-m/fpu/libg.a(lib_a-s_fpclassify.o)
 .data          0x0000000000000000        0x0 /usr/lib/gcc/arm-none-eabi/4.9.3/../../../arm-none-eabi/lib/armv7e-m/fpu/libg.a(lib_a-s_fpclassify.o)
 .bss           0x0000000000000000        0x0 /usr/lib/gcc/arm-none-eabi/4.9.3/../../../arm-none-eabi/lib/armv7e-m/fpu/libg.a(lib_a-s_fpclassify.o)
 .text          0x0000000000000000        0x0 /usr/lib/gcc/arm-none-eabi/4.9.3/../../../arm-none-eabi/lib/armv7e-m/fpu/libg.a(lib_a-stdio.o)
 .data          0x0000000000000000        0x0 /usr/lib/gcc/arm-none-eabi/4.9.3/../../../arm-none-eabi/lib/armv7e-m/fpu/libg.a(lib_a-stdio.o)
 .bss           0x0000000000000000        0x0 /usr/lib/gcc/arm-none-eabi/4.9.3/../../../arm-none-eabi/lib/armv7e-m/fpu/libg.a(lib_a-stdio.o)
 .text.__seofread
                0x0000000000000000        0x4 /usr/lib/gcc/arm-none-eabi/4.9.3/../../../arm-none-eabi/lib/armv7e-m/fpu/libg.a(lib_a-stdio.o)
 .text          0x0000000000000000      0x2e0 /usr/lib/gcc/arm-none-eabi/4.9.3/../../../arm-none-eabi/lib/armv7e-m/fpu/libg.a(lib_a-strcmp.o)
 .data          0x0000000000000000        0x0 /usr/lib/gcc/arm-none-eabi/4.9.3/../../../arm-none-eabi/lib/armv7e-m/fpu/libg.a(lib_a-strcmp.o)
 .bss           0x0000000000000000        0x0 /usr/lib/gcc/arm-none-eabi/4.9.3/../../../arm-none-eabi/lib/armv7e-m/fpu/libg.a(lib_a-strcmp.o)
 .debug_line    0x0000000000000000      0x134 /usr/lib/gcc/arm-none-eabi/4.9.3/../../../arm-none-eabi/lib/armv7e-m/fpu/libg.a(lib_a-strcmp.o)
 .debug_info    0x0000000000000000       0xd4 /usr/lib/gcc/arm-none-eabi/4.9.3/../../../arm-none-eabi/lib/armv7e-m/fpu/libg.a(lib_a-strcmp.o)
 .debug_abbrev  0x0000000000000000       0x14 /usr/lib/gcc/arm-none-eabi/4.9.3/../../../arm-none-eabi/lib/armv7e-m/fpu/libg.a(lib_a-strcmp.o)
 .debug_aranges
                0x0000000000000000       0x20 /usr/lib/gcc/arm-none-eabi/4.9.3/../../../arm-none-eabi/lib/armv7e-m/fpu/libg.a(lib_a-strcmp.o)
 .eh_frame      0x0000000000000000       0x70 /usr/lib/gcc/arm-none-eabi/4.9.3/../../../arm-none-eabi/lib/armv7e-m/fpu/libg.a(lib_a-strcmp.o)
 .ARM.attributes
                0x0000000000000000       0x20 /usr/lib/gcc/arm-none-eabi/4.9.3/../../../arm-none-eabi/lib/armv7e-m/fpu/libg.a(lib_a-strcmp.o)
 .text          0x0000000000000000        0x0 /usr/lib/gcc/arm-none-eabi/4.9.3/../../../arm-none-eabi/lib/armv7e-m/fpu/libg.a(lib_a-vfiprintf.o)
 .data          0x0000000000000000        0x0 /usr/lib/gcc/arm-none-eabi/4.9.3/../../../arm-none-eabi/lib/armv7e-m/fpu/libg.a(lib_a-vfiprintf.o)
 .bss           0x0000000000000000        0x0 /usr/lib/gcc/arm-none-eabi/4.9.3/../../../arm-none-eabi/lib/armv7e-m/fpu/libg.a(lib_a-vfiprintf.o)
 .text._vfiprintf_r
                0x0000000000000000      0xc10 /usr/lib/gcc/arm-none-eabi/4.9.3/../../../arm-none-eabi/lib/armv7e-m/fpu/libg.a(lib_a-vfiprintf.o)
 .text.vfiprintf
                0x0000000000000000       0x18 /usr/lib/gcc/arm-none-eabi/4.9.3/../../../arm-none-eabi/lib/armv7e-m/fpu/libg.a(lib_a-vfiprintf.o)
 .text.__sbprintf
                0x0000000000000000       0x78 /usr/lib/gcc/arm-none-eabi/4.9.3/../../../arm-none-eabi/lib/armv7e-m/fpu/libg.a(lib_a-vfiprintf.o)
 .rodata.zeroes.6869
                0x0000000000000000       0x10 /usr/lib/gcc/arm-none-eabi/4.9.3/../../../arm-none-eabi/lib/armv7e-m/fpu/libg.a(lib_a-vfiprintf.o)
 .rodata.str1.4
                0x0000000000000000       0x30 /usr/lib/gcc/arm-none-eabi/4.9.3/../../../arm-none-eabi/lib/armv7e-m/fpu/libg.a(lib_a-vfiprintf.o)
 .rodata.blanks.6868
                0x0000000000000000       0x10 /usr/lib/gcc/arm-none-eabi/4.9.3/../../../arm-none-eabi/lib/armv7e-m/fpu/libg.a(lib_a-vfiprintf.o)
 .text          0x0000000000000000        0x0 /usr/lib/gcc/arm-none-eabi/4.9.3/../../../arm-none-eabi/lib/armv7e-m/fpu/libg.a(lib_a-wbuf.o)
 .data          0x0000000000000000        0x0 /usr/lib/gcc/arm-none-eabi/4.9.3/../../../arm-none-eabi/lib/armv7e-m/fpu/libg.a(lib_a-wbuf.o)
 .bss           0x0000000000000000        0x0 /usr/lib/gcc/arm-none-eabi/4.9.3/../../../arm-none-eabi/lib/armv7e-m/fpu/libg.a(lib_a-wbuf.o)
 .text.__swbuf  0x0000000000000000       0x10 /usr/lib/gcc/arm-none-eabi/4.9.3/../../../arm-none-eabi/lib/armv7e-m/fpu/libg.a(lib_a-wbuf.o)
 .text          0x0000000000000000        0x0 /usr/lib/gcc/arm-none-eabi/4.9.3/../../../arm-none-eabi/lib/armv7e-m/fpu/libg.a(lib_a-callocr.o)
 .data          0x0000000000000000        0x0 /usr/lib/gcc/arm-none-eabi/4.9.3/../../../arm-none-eabi/lib/armv7e-m/fpu/libg.a(lib_a-callocr.o)
 .bss           0x0000000000000000        0x0 /usr/lib/gcc/arm-none-eabi/4.9.3/../../../arm-none-eabi/lib/armv7e-m/fpu/libg.a(lib_a-callocr.o)
 .text          0x0000000000000000        0x0 /usr/lib/gcc/arm-none-eabi/4.9.3/../../../arm-none-eabi/lib/armv7e-m/fpu/libg.a(lib_a-fclose.o)
 .data          0x0000000000000000        0x0 /usr/lib/gcc/arm-none-eabi/4.9.3/../../../arm-none-eabi/lib/armv7e-m/fpu/libg.a(lib_a-fclose.o)
 .bss           0x0000000000000000        0x0 /usr/lib/gcc/arm-none-eabi/4.9.3/../../../arm-none-eabi/lib/armv7e-m/fpu/libg.a(lib_a-fclose.o)
 .text.fclose   0x0000000000000000       0x10 /usr/lib/gcc/arm-none-eabi/4.9.3/../../../arm-none-eabi/lib/armv7e-m/fpu/libg.a(lib_a-fclose.o)
 .text          0x0000000000000000        0x0 /usr/lib/gcc/arm-none-eabi/4.9.3/../../../arm-none-eabi/lib/armv7e-m/fpu/libg.a(lib_a-fputwc.o)
 .data          0x0000000000000000        0x0 /usr/lib/gcc/arm-none-eabi/4.9.3/../../../arm-none-eabi/lib/armv7e-m/fpu/libg.a(lib_a-fputwc.o)
 .bss           0x0000000000000000        0x0 /usr/lib/gcc/arm-none-eabi/4.9.3/../../../arm-none-eabi/lib/armv7e-m/fpu/libg.a(lib_a-fputwc.o)
 .text.fputwc   0x0000000000000000       0x28 /usr/lib/gcc/arm-none-eabi/4.9.3/../../../arm-none-eabi/lib/armv7e-m/fpu/libg.a(lib_a-fputwc.o)
 .text          0x0000000000000000        0x0 /usr/lib/gcc/arm-none-eabi/4.9.3/../../../arm-none-eabi/lib/armv7e-m/fpu/libg.a(lib_a-wcrtomb.o)
 .data          0x0000000000000000        0x0 /usr/lib/gcc/arm-none-eabi/4.9.3/../../../arm-none-eabi/lib/armv7e-m/fpu/libg.a(lib_a-wcrtomb.o)
 .bss           0x0000000000000000        0x0 /usr/lib/gcc/arm-none-eabi/4.9.3/../../../arm-none-eabi/lib/armv7e-m/fpu/libg.a(lib_a-wcrtomb.o)
 .text.wcrtomb  0x0000000000000000       0x58 /usr/lib/gcc/arm-none-eabi/4.9.3/../../../arm-none-eabi/lib/armv7e-m/fpu/libg.a(lib_a-wcrtomb.o)
 .text          0x0000000000000000        0x0 /usr/lib/gcc/arm-none-eabi/4.9.3/../../../arm-none-eabi/lib/armv7e-m/fpu/libg.a(lib_a-wctomb_r.o)
 .data          0x0000000000000000        0x0 /usr/lib/gcc/arm-none-eabi/4.9.3/../../../arm-none-eabi/lib/armv7e-m/fpu/libg.a(lib_a-wctomb_r.o)
 .bss           0x0000000000000000        0x0 /usr/lib/gcc/arm-none-eabi/4.9.3/../../../arm-none-eabi/lib/armv7e-m/fpu/libg.a(lib_a-wctomb_r.o)
 .text._wctomb_r
                0x0000000000000000       0x30 /usr/lib/gcc/arm-none-eabi/4.9.3/../../../arm-none-eabi/lib/armv7e-m/fpu/libg.a(lib_a-wctomb_r.o)
 .data          0x0000000000000000        0x0 /usr/lib/gcc/arm-none-eabi/4.9.3/armv7e-m/fpu/libgcc.a(_arm_addsubdf3.o)
 .bss           0x0000000000000000        0x0 /usr/lib/gcc/arm-none-eabi/4.9.3/armv7e-m/fpu/libgcc.a(_arm_addsubdf3.o)
 .data          0x0000000000000000        0x0 /usr/lib/gcc/arm-none-eabi/4.9.3/armv7e-m/fpu/libgcc.a(_arm_muldivdf3.o)
 .bss           0x0000000000000000        0x0 /usr/lib/gcc/arm-none-eabi/4.9.3/armv7e-m/fpu/libgcc.a(_arm_muldivdf3.o)
 .data          0x0000000000000000        0x0 /usr/lib/gcc/arm-none-eabi/4.9.3/armv7e-m/fpu/libgcc.a(_arm_cmpdf2.o)
 .bss           0x0000000000000000        0x0 /usr/lib/gcc/arm-none-eabi/4.9.3/armv7e-m/fpu/libgcc.a(_arm_cmpdf2.o)
 .data          0x0000000000000000        0x0 /usr/lib/gcc/arm-none-eabi/4.9.3/armv7e-m/fpu/libgcc.a(_arm_fixdfsi.o)
 .bss           0x0000000000000000        0x0 /usr/lib/gcc/arm-none-eabi/4.9.3/armv7e-m/fpu/libgcc.a(_arm_fixdfsi.o)
 .data          0x0000000000000000        0x0 /usr/lib/gcc/arm-none-eabi/4.9.3/armv7e-m/fpu/libgcc.a(_aeabi_uldivmod.o)
 .bss           0x0000000000000000        0x0 /usr/lib/gcc/arm-none-eabi/4.9.3/armv7e-m/fpu/libgcc.a(_aeabi_uldivmod.o)
 .data          0x0000000000000000        0x0 /usr/lib/gcc/arm-none-eabi/4.9.3/armv7e-m/fpu/libgcc.a(bpabi.o)
 .bss           0x0000000000000000        0x0 /usr/lib/gcc/arm-none-eabi/4.9.3/armv7e-m/fpu/libgcc.a(bpabi.o)
 .data          0x0000000000000000        0x0 /usr/lib/gcc/arm-none-eabi/4.9.3/armv7e-m/fpu/libgcc.a(_dvmd_tls.o)
 .bss           0x0000000000000000        0x0 /usr/lib/gcc/arm-none-eabi/4.9.3/armv7e-m/fpu/libgcc.a(_dvmd_tls.o)
 .data          0x0000000000000000        0x0 /usr/lib/gcc/arm-none-eabi/4.9.3/armv7e-m/fpu/libgcc.a(_divdi3.o)
 .bss           0x0000000000000000        0x0 /usr/lib/gcc/arm-none-eabi/4.9.3/armv7e-m/fpu/libgcc.a(_divdi3.o)
 .ARM.extab     0x0000000000000000        0x0 /usr/lib/gcc/arm-none-eabi/4.9.3/armv7e-m/fpu/libgcc.a(_divdi3.o)
 .data          0x0000000000000000        0x0 /usr/lib/gcc/arm-none-eabi/4.9.3/armv7e-m/fpu/libgcc.a(_udivdi3.o)
 .bss           0x0000000000000000        0x0 /usr/lib/gcc/arm-none-eabi/4.9.3/armv7e-m/fpu/libgcc.a(_udivdi3.o)
 .ARM.extab     0x0000000000000000        0x0 /usr/lib/gcc/arm-none-eabi/4.9.3/armv7e-m/fpu/libgcc.a(_udivdi3.o)
 .text          0x0000000000000000        0x0 /usr/lib/gcc/arm-none-eabi/4.9.3/armv7e-m/fpu/crtend.o
 .data          0x0000000000000000        0x0 /usr/lib/gcc/arm-none-eabi/4.9.3/armv7e-m/fpu/crtend.o
 .bss           0x0000000000000000        0x0 /usr/lib/gcc/arm-none-eabi/4.9.3/armv7e-m/fpu/crtend.o
 .eh_frame      0x0000000000000000        0x4 /usr/lib/gcc/arm-none-eabi/4.9.3/armv7e-m/fpu/crtend.o
 .jcr           0x0000000000000000        0x4 /usr/lib/gcc/arm-none-eabi/4.9.3/armv7e-m/fpu/crtend.o
 .text          0x0000000000000000        0x0 /usr/lib/gcc/arm-none-eabi/4.9.3/armv7e-m/fpu/crtn.o
 .data          0x0000000000000000        0x0 /usr/lib/gcc/arm-none-eabi/4.9.3/armv7e-m/fpu/crtn.o
 .bss           0x0000000000000000        0x0 /usr/lib/gcc/arm-none-eabi/4.9.3/armv7e-m/fpu/crtn.o

Memory Configuration

Name             Origin             Length             Attributes
FLASH            0x0000000008000000 0x0000000000040000 xr
RAM              0x0000000020000000 0x000000000000a000 xrw
CCMRAM           0x0000000010000000 0x0000000000002000 rw
*default*        0x0000000000000000 0xffffffffffffffff

Linker script and memory map

LOAD /usr/lib/gcc/arm-none-eabi/4.9.3/armv7e-m/fpu/crti.o
LOAD /usr/lib/gcc/arm-none-eabi/4.9.3/armv7e-m/fpu/crtbegin.o
LOAD /usr/lib/gcc/arm-none-eabi/4.9.3/../../../arm-none-eabi/lib/armv7e-m/fpu/crt0.o
LOAD build/main.o
LOAD build/mycode.o
LOAD build/mytest.o
LOAD build/simple_task.o
LOAD build/task_executive1.o
LOAD build/task_test1.o
LOAD build/monitor.o
LOAD build/parser.o
LOAD build/dump.o
LOAD build/syscall.o
LOAD build/terminal.o
LOAD build/decoder/decoder.o
LOAD build/decoder/STM32F30x_decoder.o
LOAD build/Drivers/CMSIS/Device/ST/STM32F3xx/Source/Templates/system_stm32f3xx.o
LOAD build/Drivers/STM32F3xx_HAL_Driver/Src/stm32f3xx_hal_rcc.o
LOAD build/Drivers/STM32F3xx_HAL_Driver/Src/stm32f3xx_hal.o
LOAD build/Drivers/STM32F3xx_HAL_Driver/Src/stm32f3xx_hal_cortex.o
LOAD build/Drivers/STM32F3xx_HAL_Driver/Src/stm32f3xx_hal_uart.o
LOAD build/Drivers/STM32F3xx_HAL_Driver/Src/stm32f3xx_hal_gpio.o
LOAD build/Drivers/STM32F3xx_HAL_Driver/Src/stm32f3xx_hal_pcd.o
LOAD build/Drivers/STM32F3xx_HAL_Driver/Src/stm32f3xx_hal_pcd_ex.o
LOAD build/Drivers/STM32F3xx_HAL_Driver/Src/stm32f3xx_hal_i2c.o
LOAD build/Drivers/STM32F3xx_HAL_Driver/Src/stm32f3xx_hal_spi.o
LOAD build/Drivers/STM32_USB_Device_Library/Core/Src/usbd_core.o
LOAD build/Drivers/STM32_USB_Device_Library/Core/Src/usbd_ctlreq.o
LOAD build/Drivers/STM32_USB_Device_Library/Core/Src/usbd_ioreq.o
LOAD build/Drivers/STM32_USB_Device_Library/Class/CDC/Src/usbd_cdc.o
LOAD build/usbd_conf.o
LOAD build/usbd_desc.o
LOAD build/usbd_cdc_interface.o
LOAD build/Drivers/BSP/STM32F3-Discovery/stm32f3_discovery.o
LOAD build/Drivers/BSP/STM32F3-Discovery/stm32f3_discovery_accelerometer.o
LOAD build/Drivers/BSP/STM32F3-Discovery/stm32f3_discovery_gyroscope.o
LOAD build/Drivers/BSP/Components/lsm303dlhc/lsm303dlhc.o
LOAD build/Drivers/BSP/Components/l3gd20/l3gd20.o
LOAD build/Drivers/CMSIS/Device/ST/STM32F3xx/Source/Templates/gcc/startup_stm32f303xc.o
START GROUP
LOAD /usr/lib/gcc/arm-none-eabi/4.9.3/armv7e-m/fpu/libgcc.a
LOAD /usr/lib/gcc/arm-none-eabi/4.9.3/../../../arm-none-eabi/lib/armv7e-m/fpu/libg.a
LOAD /usr/lib/gcc/arm-none-eabi/4.9.3/../../../arm-none-eabi/lib/armv7e-m/fpu/libc.a
END GROUP
LOAD /usr/lib/gcc/arm-none-eabi/4.9.3/armv7e-m/fpu/crtend.o
LOAD /usr/lib/gcc/arm-none-eabi/4.9.3/armv7e-m/fpu/crtn.o
                0x0000000020007fff                _estack = 0x20007fff
                0x0000000000000200                _Min_Heap_Size = 0x200
                0x0000000000000400                _Min_Stack_Size = 0x400

.isr_vector     0x0000000008000000      0x188
                0x0000000008000000                . = ALIGN (0x4)
 *(.isr_vector)
 .isr_vector    0x0000000008000000      0x188 build/Drivers/CMSIS/Device/ST/STM32F3xx/Source/Templates/gcc/startup_stm32f303xc.o
                0x0000000008000000                g_pfnVectors
                0x0000000008000188                . = ALIGN (0x4)

.text           0x0000000008000188     0xa5fc
                0x0000000008000188                . = ALIGN (0x4)
 *(.text)
 .text          0x0000000008000188       0xa4 /usr/lib/gcc/arm-none-eabi/4.9.3/armv7e-m/fpu/crtbegin.o
 .text          0x000000000800022c       0x38 build/mycode.o
                0x000000000800022c                mytest
                0x0000000008000244                my_Tick
                0x0000000008000258                my_Loop
                0x000000000800025c                my_Init
 .text          0x0000000008000264      0x134 /usr/lib/gcc/arm-none-eabi/4.9.3/../../../arm-none-eabi/lib/armv7e-m/fpu/libg.a(lib_a-memcpy.o)
                0x0000000008000264                memcpy
 .text          0x0000000008000398      0x370 /usr/lib/gcc/arm-none-eabi/4.9.3/armv7e-m/fpu/libgcc.a(_arm_addsubdf3.o)
                0x0000000008000398                __aeabi_drsub
                0x00000000080003a0                __aeabi_dsub
                0x00000000080003a0                __subdf3
                0x00000000080003a4                __adddf3
                0x00000000080003a4                __aeabi_dadd
                0x000000000800061c                __aeabi_ui2d
                0x000000000800061c                __floatunsidf
                0x000000000800063c                __floatsidf
                0x000000000800063c                __aeabi_i2d
                0x0000000008000660                __extendsfdf2
                0x0000000008000660                __aeabi_f2d
                0x000000000800069c                __aeabi_ul2d
                0x000000000800069c                __floatundidf
                0x00000000080006ac                __floatdidf
                0x00000000080006ac                __aeabi_l2d
 .text          0x0000000008000708      0x424 /usr/lib/gcc/arm-none-eabi/4.9.3/armv7e-m/fpu/libgcc.a(_arm_muldivdf3.o)
                0x0000000008000708                __aeabi_dmul
                0x0000000008000708                __muldf3
                0x000000000800095c                __aeabi_ddiv
                0x000000000800095c                __divdf3
 .text          0x0000000008000b2c      0x110 /usr/lib/gcc/arm-none-eabi/4.9.3/armv7e-m/fpu/libgcc.a(_arm_cmpdf2.o)
                0x0000000008000b2c                __gtdf2
                0x0000000008000b2c                __gedf2
                0x0000000008000b34                __ltdf2
                0x0000000008000b34                __ledf2
                0x0000000008000b3c                __cmpdf2
                0x0000000008000b3c                __eqdf2
                0x0000000008000b3c                __nedf2
                0x0000000008000bb8                __aeabi_cdrcmple
                0x0000000008000bc8                __aeabi_cdcmple
                0x0000000008000bc8                __aeabi_cdcmpeq
                0x0000000008000bd8                __aeabi_dcmpeq
                0x0000000008000bec                __aeabi_dcmplt
                0x0000000008000c00                __aeabi_dcmple
                0x0000000008000c14                __aeabi_dcmpge
                0x0000000008000c28                __aeabi_dcmpgt
 .text          0x0000000008000c3c       0x50 /usr/lib/gcc/arm-none-eabi/4.9.3/armv7e-m/fpu/libgcc.a(_arm_fixdfsi.o)
                0x0000000008000c3c                __fixdfsi
                0x0000000008000c3c                __aeabi_d2iz
 .text          0x0000000008000c8c       0x30 /usr/lib/gcc/arm-none-eabi/4.9.3/armv7e-m/fpu/libgcc.a(_aeabi_uldivmod.o)
                0x0000000008000c8c                __aeabi_uldivmod
 .text          0x0000000008000cbc       0x60 /usr/lib/gcc/arm-none-eabi/4.9.3/armv7e-m/fpu/libgcc.a(bpabi.o)
                0x0000000008000cbc                __gnu_ldivmod_helper
                0x0000000008000cec                __gnu_uldivmod_helper
 .text          0x0000000008000d1c        0x4 /usr/lib/gcc/arm-none-eabi/4.9.3/armv7e-m/fpu/libgcc.a(_dvmd_tls.o)
                0x0000000008000d1c                __aeabi_ldiv0
                0x0000000008000d1c                __aeabi_idiv0
 .text          0x0000000008000d20      0x29c /usr/lib/gcc/arm-none-eabi/4.9.3/armv7e-m/fpu/libgcc.a(_divdi3.o)
                0x0000000008000d20                __divdi3
 .text          0x0000000008000fbc      0x26c /usr/lib/gcc/arm-none-eabi/4.9.3/armv7e-m/fpu/libgcc.a(_udivdi3.o)
                0x0000000008000fbc                __udivdi3
 *(.text*)
 .text.CmdLED   0x0000000008001228       0x5c build/main.o
                0x0000000008001228                CmdLED
 .text.CmdAccel
                0x0000000008001284       0x28 build/main.o
                0x0000000008001284                CmdAccel
 .text.CmdGyro  0x00000000080012ac       0x54 build/main.o
                0x00000000080012ac                CmdGyro
 .text.CmdButton
                0x0000000008001300       0x2c build/main.o
                0x0000000008001300                CmdButton
 .text.Error_Handler
                0x000000000800132c        0xa build/main.o
                0x000000000800132c                Error_Handler
 *fill*         0x0000000008001336        0x2 
 .text.startup.main
                0x0000000008001338       0x90 build/main.o
                0x0000000008001338                main
 .text.SysTick_Handler
                0x00000000080013c8        0x4 build/main.o
                0x00000000080013c8                SysTick_Handler
 .text.CmdTest  0x00000000080013cc       0x30 build/mytest.o
                0x00000000080013cc                CmdTest
 .text.CmdCount
                0x00000000080013fc       0x10 build/simple_task.o
                0x00000000080013fc                CmdCount
 .text.taskCounter
                0x000000000800140c       0x20 build/simple_task.o
                0x000000000800140c                taskCounter
 .text.TaskNull
                0x000000000800142c        0x2 build/task_executive1.o
 *fill*         0x000000000800142e        0x2 
 .text.TaskInit
                0x0000000008001430       0x2c build/task_executive1.o
                0x0000000008001430                TaskInit
 .text.TaskKill
                0x000000000800145c       0x3c build/task_executive1.o
                0x000000000800145c                TaskKill
 .text.TaskAdd  0x0000000008001498       0x70 build/task_executive1.o
                0x0000000008001498                TaskAdd
 .text.TaskSwitcher
                0x0000000008001508       0x80 build/task_executive1.o
                0x0000000008001508                TaskSwitcher
 .text.TaskShell
                0x0000000008001588       0x24 build/task_executive1.o
 .text.Task1    0x00000000080015ac       0x20 build/task_test1.o
                0x00000000080015ac                Task1
 .text.Task2    0x00000000080015cc       0x20 build/task_test1.o
                0x00000000080015cc                Task2
 .text.Task3    0x00000000080015ec       0x20 build/task_test1.o
                0x00000000080015ec                Task3
 .text.Task4    0x000000000800160c       0x20 build/task_test1.o
                0x000000000800160c                Task4
 .text.CmdTaskswitcher
                0x000000000800162c       0x14 build/task_test1.o
                0x000000000800162c                CmdTaskswitcher
 .text.CmdTaskinit
                0x0000000008001640       0x14 build/task_test1.o
                0x0000000008001640                CmdTaskinit
 .text.CmdTaskadd
                0x0000000008001654       0x40 build/task_test1.o
                0x0000000008001654                CmdTaskadd
 .text.CmdW     0x0000000008001694       0x1c build/monitor.o
                0x0000000008001694                CmdW
 .text.CmdR     0x00000000080016b0       0x20 build/monitor.o
                0x00000000080016b0                CmdR
 .text.parse    0x00000000080016d0      0x104 build/parser.o
                0x00000000080016d0                parse
 .text.TaskInput
                0x00000000080017d4      0x12c build/parser.o
                0x00000000080017d4                TaskInput
 .text.fetch_uint32_arg
                0x0000000008001900       0x28 build/parser.o
                0x0000000008001900                fetch_uint32_arg
 .text.fetch_string_arg
                0x0000000008001928       0x20 build/parser.o
                0x0000000008001928                fetch_string_arg
 .text.DumpBuffer
                0x0000000008001948       0xb4 build/dump.o
                0x0000000008001948                DumpBuffer
 .text.CmdDump  0x00000000080019fc       0x54 build/dump.o
                0x00000000080019fc                CmdDump
 .text._sbrk_r  0x0000000008001a50       0x34 build/syscall.o
                0x0000000008001a50                _sbrk_r
 .text._close_r
                0x0000000008001a84        0x6 build/syscall.o
                0x0000000008001a84                _close_r
 .text._fstat_r
                0x0000000008001a8a        0xa build/syscall.o
                0x0000000008001a8a                _fstat_r
 .text._isatty_r
                0x0000000008001a94        0x4 build/syscall.o
                0x0000000008001a94                _isatty_r
 .text._lseek_r
                0x0000000008001a98        0x4 build/syscall.o
                0x0000000008001a98                _lseek_r
 .text.USBD_CDC_DataIn
                0x0000000008001a9c       0x80 build/terminal.o
 .text.CmdStats
                0x0000000008001b1c       0x54 build/terminal.o
                0x0000000008001b1c                CmdStats
 .text.TerminalInit
                0x0000000008001b70       0x7c build/terminal.o
                0x0000000008001b70                TerminalInit
 .text.TerminalRead
                0x0000000008001bec       0x4c build/terminal.o
                0x0000000008001bec                TerminalRead
 .text._read_r  0x0000000008001c38        0xa build/terminal.o
                0x0000000008001c38                _read_r
 .text.TerminalReadNonBlock
                0x0000000008001c42       0x10 build/terminal.o
                0x0000000008001c42                TerminalReadNonBlock
 .text.TerminalReadAnyNonBlock
                0x0000000008001c52       0x12 build/terminal.o
                0x0000000008001c52                TerminalReadAnyNonBlock
 .text.TerminalOutputBufferWrite
                0x0000000008001c64       0xe8 build/terminal.o
                0x0000000008001c64                TerminalOutputBufferWrite
 .text._write_r
                0x0000000008001d4c       0x38 build/terminal.o
                0x0000000008001d4c                _write_r
 .text.TerminalInputBufferWrite
                0x0000000008001d84       0x70 build/terminal.o
                0x0000000008001d84                TerminalInputBufferWrite
 .text.USB_LP_CAN_RX0_IRQHandler
                0x0000000008001df4        0xc build/terminal.o
                0x0000000008001df4                USB_LP_CAN_RX0_IRQHandler
 .text.DecodeReadRegister
                0x0000000008001e00       0x40 build/decoder/decoder.o
                0x0000000008001e00                DecodeReadRegister
 .text.DecodeWriteRegister
                0x0000000008001e40       0x3c build/decoder/decoder.o
                0x0000000008001e40                DecodeWriteRegister
 .text.DecodeField
                0x0000000008001e7c       0x40 build/decoder/decoder.o
                0x0000000008001e7c                DecodeField
 .text.DecodeRegister
                0x0000000008001ebc       0x4c build/decoder/decoder.o
                0x0000000008001ebc                DecodeRegister
 .text.DecodePeripheral
                0x0000000008001f08       0x3c build/decoder/decoder.o
                0x0000000008001f08                DecodePeripheral
 .text.DecodePrintPeripherals
                0x0000000008001f44       0x44 build/decoder/decoder.o
                0x0000000008001f44                DecodePrintPeripherals
 .text.DecodePrintRegisters
                0x0000000008001f88       0x48 build/decoder/decoder.o
                0x0000000008001f88                DecodePrintRegisters
 .text.CmdDecode
                0x0000000008001fd0      0x1e4 build/decoder/decoder.o
                0x0000000008001fd0                CmdDecode
 .text.SystemInit
                0x00000000080021b4       0x68 build/Drivers/CMSIS/Device/ST/STM32F3xx/Source/Templates/system_stm32f3xx.o
                0x00000000080021b4                SystemInit
 .text.HAL_RCC_OscConfig
                0x000000000800221c      0x5d4 build/Drivers/STM32F3xx_HAL_Driver/Src/stm32f3xx_hal_rcc.o
                0x000000000800221c                HAL_RCC_OscConfig
 .text.HAL_RCC_ClockConfig
                0x00000000080027f0      0x2cc build/Drivers/STM32F3xx_HAL_Driver/Src/stm32f3xx_hal_rcc.o
                0x00000000080027f0                HAL_RCC_ClockConfig
 .text.HAL_RCC_GetSysClockFreq
                0x0000000008002abc       0x6c build/Drivers/STM32F3xx_HAL_Driver/Src/stm32f3xx_hal_rcc.o
                0x0000000008002abc                HAL_RCC_GetSysClockFreq
 .text.HAL_RCC_GetHCLKFreq
                0x0000000008002b28       0x38 build/Drivers/STM32F3xx_HAL_Driver/Src/stm32f3xx_hal_rcc.o
                0x0000000008002b28                HAL_RCC_GetHCLKFreq
 .text.HAL_MspInit
                0x0000000008002b60        0x2 build/Drivers/STM32F3xx_HAL_Driver/Src/stm32f3xx_hal.o
                0x0000000008002b60                HAL_MspInit
 .text.HAL_InitTick
                0x0000000008002b62       0x24 build/Drivers/STM32F3xx_HAL_Driver/Src/stm32f3xx_hal.o
                0x0000000008002b62                HAL_InitTick
 *fill*         0x0000000008002b86        0x2 
 .text.HAL_Init
                0x0000000008002b88       0x24 build/Drivers/STM32F3xx_HAL_Driver/Src/stm32f3xx_hal.o
                0x0000000008002b88                HAL_Init
 .text.HAL_IncTick
                0x0000000008002bac       0x10 build/Drivers/STM32F3xx_HAL_Driver/Src/stm32f3xx_hal.o
                0x0000000008002bac                HAL_IncTick
 .text.HAL_GetTick
                0x0000000008002bbc        0xc build/Drivers/STM32F3xx_HAL_Driver/Src/stm32f3xx_hal.o
                0x0000000008002bbc                HAL_GetTick
 .text.HAL_Delay
                0x0000000008002bc8       0x1a build/Drivers/STM32F3xx_HAL_Driver/Src/stm32f3xx_hal.o
                0x0000000008002bc8                HAL_Delay
 *fill*         0x0000000008002be2        0x2 
 .text.HAL_NVIC_SetPriorityGrouping
                0x0000000008002be4       0x24 build/Drivers/STM32F3xx_HAL_Driver/Src/stm32f3xx_hal_cortex.o
                0x0000000008002be4                HAL_NVIC_SetPriorityGrouping
 .text.HAL_NVIC_SetPriority
                0x0000000008002c08       0x60 build/Drivers/STM32F3xx_HAL_Driver/Src/stm32f3xx_hal_cortex.o
                0x0000000008002c08                HAL_NVIC_SetPriority
 .text.HAL_NVIC_EnableIRQ
                0x0000000008002c68       0x18 build/Drivers/STM32F3xx_HAL_Driver/Src/stm32f3xx_hal_cortex.o
                0x0000000008002c68                HAL_NVIC_EnableIRQ
 .text.HAL_SYSTICK_Config
                0x0000000008002c80       0x2c build/Drivers/STM32F3xx_HAL_Driver/Src/stm32f3xx_hal_cortex.o
                0x0000000008002c80                HAL_SYSTICK_Config
 .text.HAL_GPIO_Init
                0x0000000008002cac      0x188 build/Drivers/STM32F3xx_HAL_Driver/Src/stm32f3xx_hal_gpio.o
                0x0000000008002cac                HAL_GPIO_Init
 .text.HAL_GPIO_ReadPin
                0x0000000008002e34        0xc build/Drivers/STM32F3xx_HAL_Driver/Src/stm32f3xx_hal_gpio.o
                0x0000000008002e34                HAL_GPIO_ReadPin
 .text.HAL_GPIO_WritePin
                0x0000000008002e40        0xa build/Drivers/STM32F3xx_HAL_Driver/Src/stm32f3xx_hal_gpio.o
                0x0000000008002e40                HAL_GPIO_WritePin
 .text.HAL_GPIO_TogglePin
                0x0000000008002e4a        0x8 build/Drivers/STM32F3xx_HAL_Driver/Src/stm32f3xx_hal_gpio.o
                0x0000000008002e4a                HAL_GPIO_TogglePin
 .text.HAL_PCD_Init
                0x0000000008002e52       0x9a build/Drivers/STM32F3xx_HAL_Driver/Src/stm32f3xx_hal_pcd.o
                0x0000000008002e52                HAL_PCD_Init
 .text.HAL_PCD_Start
                0x0000000008002eec        0xc build/Drivers/STM32F3xx_HAL_Driver/Src/stm32f3xx_hal_pcd.o
                0x0000000008002eec                HAL_PCD_Start
 .text.HAL_PCD_SetAddress
                0x0000000008002ef8       0x2c build/Drivers/STM32F3xx_HAL_Driver/Src/stm32f3xx_hal_pcd.o
                0x0000000008002ef8                HAL_PCD_SetAddress
 .text.HAL_PCD_EP_Open
                0x0000000008002f24      0x338 build/Drivers/STM32F3xx_HAL_Driver/Src/stm32f3xx_hal_pcd.o
                0x0000000008002f24                HAL_PCD_EP_Open
 .text.HAL_PCD_EP_Close
                0x000000000800325c      0x1b0 build/Drivers/STM32F3xx_HAL_Driver/Src/stm32f3xx_hal_pcd.o
                0x000000000800325c                HAL_PCD_EP_Close
 .text.HAL_PCD_EP_Receive
                0x000000000800340c       0xf4 build/Drivers/STM32F3xx_HAL_Driver/Src/stm32f3xx_hal_pcd.o
                0x000000000800340c                HAL_PCD_EP_Receive
 .text.HAL_PCD_EP_GetRxCount
                0x0000000008003500       0x10 build/Drivers/STM32F3xx_HAL_Driver/Src/stm32f3xx_hal_pcd.o
                0x0000000008003500                HAL_PCD_EP_GetRxCount
 .text.HAL_PCD_EP_Transmit
                0x0000000008003510      0x182 build/Drivers/STM32F3xx_HAL_Driver/Src/stm32f3xx_hal_pcd.o
                0x0000000008003510                HAL_PCD_EP_Transmit
 .text.HAL_PCD_IRQHandler
                0x0000000008003692      0x4a6 build/Drivers/STM32F3xx_HAL_Driver/Src/stm32f3xx_hal_pcd.o
                0x0000000008003692                HAL_PCD_IRQHandler
 .text.HAL_PCD_EP_SetStall
                0x0000000008003b38       0xa2 build/Drivers/STM32F3xx_HAL_Driver/Src/stm32f3xx_hal_pcd.o
                0x0000000008003b38                HAL_PCD_EP_SetStall
 .text.HAL_PCD_EP_ClrStall
                0x0000000008003bda       0xc8 build/Drivers/STM32F3xx_HAL_Driver/Src/stm32f3xx_hal_pcd.o
                0x0000000008003bda                HAL_PCD_EP_ClrStall
 .text.HAL_PCDEx_PMAConfig
                0x0000000008003ca2       0x34 build/Drivers/STM32F3xx_HAL_Driver/Src/stm32f3xx_hal_pcd_ex.o
                0x0000000008003ca2                HAL_PCDEx_PMAConfig
 .text.PCD_WritePMA
                0x0000000008003cd6       0x2e build/Drivers/STM32F3xx_HAL_Driver/Src/stm32f3xx_hal_pcd_ex.o
                0x0000000008003cd6                PCD_WritePMA
 .text.PCD_ReadPMA
                0x0000000008003d04       0x22 build/Drivers/STM32F3xx_HAL_Driver/Src/stm32f3xx_hal_pcd_ex.o
                0x0000000008003d04                PCD_ReadPMA
 .text.HAL_PCDEx_SetConnectionState
                0x0000000008003d26        0x2 build/Drivers/STM32F3xx_HAL_Driver/Src/stm32f3xx_hal_pcd_ex.o
                0x0000000008003d26                HAL_PCDEx_SetConnectionState
 .text.I2C_TransferConfig
                0x0000000008003d28       0x2a build/Drivers/STM32F3xx_HAL_Driver/Src/stm32f3xx_hal_i2c.o
 *fill*         0x0000000008003d52        0x2 
 .text.I2C_IsAcknowledgeFailed
                0x0000000008003d54       0x90 build/Drivers/STM32F3xx_HAL_Driver/Src/stm32f3xx_hal_i2c.o
 .text.I2C_WaitOnFlagUntilTimeout
                0x0000000008003de4       0x68 build/Drivers/STM32F3xx_HAL_Driver/Src/stm32f3xx_hal_i2c.o
 .text.I2C_WaitOnTXISFlagUntilTimeout
                0x0000000008003e4c       0x54 build/Drivers/STM32F3xx_HAL_Driver/Src/stm32f3xx_hal_i2c.o
 .text.I2C_RequestMemoryWrite
                0x0000000008003ea0       0x64 build/Drivers/STM32F3xx_HAL_Driver/Src/stm32f3xx_hal_i2c.o
 .text.I2C_RequestMemoryRead
                0x0000000008003f04       0x62 build/Drivers/STM32F3xx_HAL_Driver/Src/stm32f3xx_hal_i2c.o
 .text.I2C_WaitOnSTOPFlagUntilTimeout
                0x0000000008003f66       0x50 build/Drivers/STM32F3xx_HAL_Driver/Src/stm32f3xx_hal_i2c.o
 .text.HAL_I2C_MspInit
                0x0000000008003fb6        0x2 build/Drivers/STM32F3xx_HAL_Driver/Src/stm32f3xx_hal_i2c.o
                0x0000000008003fb6                HAL_I2C_MspInit
 .text.HAL_I2C_Init
                0x0000000008003fb8       0x90 build/Drivers/STM32F3xx_HAL_Driver/Src/stm32f3xx_hal_i2c.o
                0x0000000008003fb8                HAL_I2C_Init
 .text.HAL_I2C_MspDeInit
                0x0000000008004048        0x2 build/Drivers/STM32F3xx_HAL_Driver/Src/stm32f3xx_hal_i2c.o
                0x0000000008004048                HAL_I2C_MspDeInit
 .text.HAL_I2C_DeInit
                0x000000000800404a       0x2e build/Drivers/STM32F3xx_HAL_Driver/Src/stm32f3xx_hal_i2c.o
                0x000000000800404a                HAL_I2C_DeInit
 .text.HAL_I2C_Mem_Write
                0x0000000008004078       0xf8 build/Drivers/STM32F3xx_HAL_Driver/Src/stm32f3xx_hal_i2c.o
                0x0000000008004078                HAL_I2C_Mem_Write
 .text.HAL_I2C_Mem_Read
                0x0000000008004170      0x104 build/Drivers/STM32F3xx_HAL_Driver/Src/stm32f3xx_hal_i2c.o
                0x0000000008004170                HAL_I2C_Mem_Read
 .text.HAL_I2C_GetState
                0x0000000008004274        0x6 build/Drivers/STM32F3xx_HAL_Driver/Src/stm32f3xx_hal_i2c.o
                0x0000000008004274                HAL_I2C_GetState
 .text.SPI_WaitFlagStateUntilTimeout
                0x000000000800427a       0x8c build/Drivers/STM32F3xx_HAL_Driver/Src/stm32f3xx_hal_spi.o
 .text.SPI_WaitFifoStateUntilTimeout
                0x0000000008004306       0x9c build/Drivers/STM32F3xx_HAL_Driver/Src/stm32f3xx_hal_spi.o
 .text.SPI_EndRxTxTransaction
                0x00000000080043a2       0x42 build/Drivers/STM32F3xx_HAL_Driver/Src/stm32f3xx_hal_spi.o
 .text.HAL_SPI_MspInit
                0x00000000080043e4        0x2 build/Drivers/STM32F3xx_HAL_Driver/Src/stm32f3xx_hal_spi.o
                0x00000000080043e4                HAL_SPI_MspInit
 .text.HAL_SPI_Init
                0x00000000080043e6       0xa6 build/Drivers/STM32F3xx_HAL_Driver/Src/stm32f3xx_hal_spi.o
                0x00000000080043e6                HAL_SPI_Init
 .text.HAL_SPI_MspDeInit
                0x000000000800448c        0x2 build/Drivers/STM32F3xx_HAL_Driver/Src/stm32f3xx_hal_spi.o
                0x000000000800448c                HAL_SPI_MspDeInit
 .text.HAL_SPI_DeInit
                0x000000000800448e       0x2e build/Drivers/STM32F3xx_HAL_Driver/Src/stm32f3xx_hal_spi.o
                0x000000000800448e                HAL_SPI_DeInit
 .text.HAL_SPI_TransmitReceive
                0x00000000080044bc      0x29a build/Drivers/STM32F3xx_HAL_Driver/Src/stm32f3xx_hal_spi.o
                0x00000000080044bc                HAL_SPI_TransmitReceive
 .text.HAL_SPI_GetState
                0x0000000008004756        0x6 build/Drivers/STM32F3xx_HAL_Driver/Src/stm32f3xx_hal_spi.o
                0x0000000008004756                HAL_SPI_GetState
 .text.USBD_Init
                0x000000000800475c       0x2a build/Drivers/STM32_USB_Device_Library/Core/Src/usbd_core.o
                0x000000000800475c                USBD_Init
 .text.USBD_RegisterClass
                0x0000000008004786        0xe build/Drivers/STM32_USB_Device_Library/Core/Src/usbd_core.o
                0x0000000008004786                USBD_RegisterClass
 .text.USBD_Start
                0x0000000008004794        0xa build/Drivers/STM32_USB_Device_Library/Core/Src/usbd_core.o
                0x0000000008004794                USBD_Start
 .text.USBD_SetClassConfig
                0x000000000800479e       0x16 build/Drivers/STM32_USB_Device_Library/Core/Src/usbd_core.o
                0x000000000800479e                USBD_SetClassConfig
 .text.USBD_ClrClassConfig
                0x00000000080047b4        0xe build/Drivers/STM32_USB_Device_Library/Core/Src/usbd_core.o
                0x00000000080047b4                USBD_ClrClassConfig
 .text.USBD_LL_SetupStage
                0x00000000080047c2       0x5a build/Drivers/STM32_USB_Device_Library/Core/Src/usbd_core.o
                0x00000000080047c2                USBD_LL_SetupStage
 .text.USBD_LL_DataOutStage
                0x000000000800481c       0x60 build/Drivers/STM32_USB_Device_Library/Core/Src/usbd_core.o
                0x000000000800481c                USBD_LL_DataOutStage
 .text.USBD_LL_DataInStage
                0x000000000800487c       0x88 build/Drivers/STM32_USB_Device_Library/Core/Src/usbd_core.o
                0x000000000800487c                USBD_LL_DataInStage
 .text.USBD_LL_Reset
                0x0000000008004904       0x3e build/Drivers/STM32_USB_Device_Library/Core/Src/usbd_core.o
                0x0000000008004904                USBD_LL_Reset
 .text.USBD_LL_SetSpeed
                0x0000000008004942        0x6 build/Drivers/STM32_USB_Device_Library/Core/Src/usbd_core.o
                0x0000000008004942                USBD_LL_SetSpeed
 .text.USBD_LL_SOF
                0x0000000008004948       0x18 build/Drivers/STM32_USB_Device_Library/Core/Src/usbd_core.o
                0x0000000008004948                USBD_LL_SOF
 .text.USBD_ParseSetupRequest
                0x0000000008004960       0x28 build/Drivers/STM32_USB_Device_Library/Core/Src/usbd_ctlreq.o
                0x0000000008004960                USBD_ParseSetupRequest
 .text.USBD_CtlError
                0x0000000008004988       0x16 build/Drivers/STM32_USB_Device_Library/Core/Src/usbd_ctlreq.o
                0x0000000008004988                USBD_CtlError
 *fill*         0x000000000800499e        0x2 
 .text.USBD_StdDevReq
                0x00000000080049a0      0x218 build/Drivers/STM32_USB_Device_Library/Core/Src/usbd_ctlreq.o
                0x00000000080049a0                USBD_StdDevReq
 .text.USBD_StdItfReq
                0x0000000008004bb8       0x30 build/Drivers/STM32_USB_Device_Library/Core/Src/usbd_ctlreq.o
                0x0000000008004bb8                USBD_StdItfReq
 .text.USBD_StdEPReq
                0x0000000008004be8       0xb2 build/Drivers/STM32_USB_Device_Library/Core/Src/usbd_ctlreq.o
                0x0000000008004be8                USBD_StdEPReq
 .text.USBD_GetString
                0x0000000008004c9a       0x3a build/Drivers/STM32_USB_Device_Library/Core/Src/usbd_ctlreq.o
                0x0000000008004c9a                USBD_GetString
 .text.USBD_CtlSendData
                0x0000000008004cd4       0x1c build/Drivers/STM32_USB_Device_Library/Core/Src/usbd_ioreq.o
                0x0000000008004cd4                USBD_CtlSendData
 .text.USBD_CtlContinueSendData
                0x0000000008004cf0       0x12 build/Drivers/STM32_USB_Device_Library/Core/Src/usbd_ioreq.o
                0x0000000008004cf0                USBD_CtlContinueSendData
 .text.USBD_CtlPrepareRx
                0x0000000008004d02       0x20 build/Drivers/STM32_USB_Device_Library/Core/Src/usbd_ioreq.o
                0x0000000008004d02                USBD_CtlPrepareRx
 .text.USBD_CtlContinueRx
                0x0000000008004d22       0x12 build/Drivers/STM32_USB_Device_Library/Core/Src/usbd_ioreq.o
                0x0000000008004d22                USBD_CtlContinueRx
 .text.USBD_CtlSendStatus
                0x0000000008004d34       0x16 build/Drivers/STM32_USB_Device_Library/Core/Src/usbd_ioreq.o
                0x0000000008004d34                USBD_CtlSendStatus
 .text.USBD_CtlReceiveStatus
                0x0000000008004d4a       0x16 build/Drivers/STM32_USB_Device_Library/Core/Src/usbd_ioreq.o
                0x0000000008004d4a                USBD_CtlReceiveStatus
 .text.USBD_CDC_DataIn
                0x0000000008004d60       0x12 build/Drivers/STM32_USB_Device_Library/Class/CDC/Src/usbd_cdc.o
 .text.USBD_CDC_EP0_RxReady
                0x0000000008004d72       0x28 build/Drivers/STM32_USB_Device_Library/Class/CDC/Src/usbd_cdc.o
 *fill*         0x0000000008004d9a        0x2 
 .text.USBD_CDC_GetFSCfgDesc
                0x0000000008004d9c        0xc build/Drivers/STM32_USB_Device_Library/Class/CDC/Src/usbd_cdc.o
 .text.USBD_CDC_GetHSCfgDesc
                0x0000000008004da8        0xc build/Drivers/STM32_USB_Device_Library/Class/CDC/Src/usbd_cdc.o
 .text.USBD_CDC_GetOtherSpeedCfgDesc
                0x0000000008004db4        0xc build/Drivers/STM32_USB_Device_Library/Class/CDC/Src/usbd_cdc.o
 .text.USBD_CDC_GetDeviceQualifierDescriptor
                0x0000000008004dc0        0xc build/Drivers/STM32_USB_Device_Library/Class/CDC/Src/usbd_cdc.o
                0x0000000008004dc0                USBD_CDC_GetDeviceQualifierDescriptor
 .text.USBD_CDC_DataOut
                0x0000000008004dcc       0x2e build/Drivers/STM32_USB_Device_Library/Class/CDC/Src/usbd_cdc.o
 .text.USBD_CDC_Setup
                0x0000000008004dfa       0x5a build/Drivers/STM32_USB_Device_Library/Class/CDC/Src/usbd_cdc.o
 .text.USBD_CDC_DeInit
                0x0000000008004e54       0x3a build/Drivers/STM32_USB_Device_Library/Class/CDC/Src/usbd_cdc.o
 .text.USBD_CDC_Init
                0x0000000008004e8e       0x86 build/Drivers/STM32_USB_Device_Library/Class/CDC/Src/usbd_cdc.o
 .text.USBD_CDC_RegisterInterface
                0x0000000008004f14        0xe build/Drivers/STM32_USB_Device_Library/Class/CDC/Src/usbd_cdc.o
                0x0000000008004f14                USBD_CDC_RegisterInterface
 .text.USBD_CDC_SetTxBuffer
                0x0000000008004f22       0x10 build/Drivers/STM32_USB_Device_Library/Class/CDC/Src/usbd_cdc.o
                0x0000000008004f22                USBD_CDC_SetTxBuffer
 .text.USBD_CDC_SetRxBuffer
                0x0000000008004f32        0xc build/Drivers/STM32_USB_Device_Library/Class/CDC/Src/usbd_cdc.o
                0x0000000008004f32                USBD_CDC_SetRxBuffer
 .text.USBD_CDC_TransmitPacket
                0x0000000008004f3e       0x2e build/Drivers/STM32_USB_Device_Library/Class/CDC/Src/usbd_cdc.o
                0x0000000008004f3e                USBD_CDC_TransmitPacket
 .text.USBD_CDC_ReceivePacket
                0x0000000008004f6c       0x26 build/Drivers/STM32_USB_Device_Library/Class/CDC/Src/usbd_cdc.o
                0x0000000008004f6c                USBD_CDC_ReceivePacket
 *fill*         0x0000000008004f92        0x2 
 .text.HAL_PCD_MspInit
                0x0000000008004f94       0x9c build/usbd_conf.o
                0x0000000008004f94                HAL_PCD_MspInit
 .text.HAL_PCD_SetupStageCallback
                0x0000000008005030        0xe build/usbd_conf.o
                0x0000000008005030                HAL_PCD_SetupStageCallback
 .text.HAL_PCD_DataOutStageCallback
                0x000000000800503e       0x12 build/usbd_conf.o
                0x000000000800503e                HAL_PCD_DataOutStageCallback
 .text.HAL_PCD_DataInStageCallback
                0x0000000008005050       0x10 build/usbd_conf.o
                0x0000000008005050                HAL_PCD_DataInStageCallback
 .text.HAL_PCD_SOFCallback
                0x0000000008005060        0x8 build/usbd_conf.o
                0x0000000008005060                HAL_PCD_SOFCallback
 .text.HAL_PCD_ResetCallback
                0x0000000008005068       0x1a build/usbd_conf.o
                0x0000000008005068                HAL_PCD_ResetCallback
 .text.HAL_PCD_SuspendCallback
                0x0000000008005082        0x2 build/usbd_conf.o
                0x0000000008005082                HAL_PCD_SuspendCallback
 .text.HAL_PCD_ResumeCallback
                0x0000000008005084        0x2 build/usbd_conf.o
                0x0000000008005084                HAL_PCD_ResumeCallback
 *fill*         0x0000000008005086        0x2 
 .text.USBD_LL_Init
                0x0000000008005088       0x7c build/usbd_conf.o
                0x0000000008005088                USBD_LL_Init
 .text.USBD_LL_Start
                0x0000000008005104        0xe build/usbd_conf.o
                0x0000000008005104                USBD_LL_Start
 .text.USBD_LL_OpenEP
                0x0000000008005112       0x14 build/usbd_conf.o
                0x0000000008005112                USBD_LL_OpenEP
 .text.USBD_LL_CloseEP
                0x0000000008005126        0xe build/usbd_conf.o
                0x0000000008005126                USBD_LL_CloseEP
 .text.USBD_LL_StallEP
                0x0000000008005134        0xe build/usbd_conf.o
                0x0000000008005134                USBD_LL_StallEP
 .text.USBD_LL_ClearStallEP
                0x0000000008005142        0xe build/usbd_conf.o
                0x0000000008005142                USBD_LL_ClearStallEP
 .text.USBD_LL_IsStallEP
                0x0000000008005150       0x26 build/usbd_conf.o
                0x0000000008005150                USBD_LL_IsStallEP
 .text.USBD_LL_SetUSBAddress
                0x0000000008005176        0xe build/usbd_conf.o
                0x0000000008005176                USBD_LL_SetUSBAddress
 .text.USBD_LL_Transmit
                0x0000000008005184        0xe build/usbd_conf.o
                0x0000000008005184                USBD_LL_Transmit
 .text.USBD_LL_PrepareReceive
                0x0000000008005192        0xe build/usbd_conf.o
                0x0000000008005192                USBD_LL_PrepareReceive
 .text.USBD_LL_GetRxDataSize
                0x00000000080051a0        0xc build/usbd_conf.o
                0x00000000080051a0                USBD_LL_GetRxDataSize
 .text.USBD_static_malloc
                0x00000000080051ac        0x8 build/usbd_conf.o
                0x00000000080051ac                USBD_static_malloc
 .text.USBD_static_free
                0x00000000080051b4        0x2 build/usbd_conf.o
                0x00000000080051b4                USBD_static_free
 *fill*         0x00000000080051b6        0x2 
 .text.USBD_VCP_DeviceDescriptor
                0x00000000080051b8        0xc build/usbd_desc.o
                0x00000000080051b8                USBD_VCP_DeviceDescriptor
 .text.USBD_VCP_LangIDStrDescriptor
                0x00000000080051c4        0xc build/usbd_desc.o
                0x00000000080051c4                USBD_VCP_LangIDStrDescriptor
 .text.IntToUnicode
                0x00000000080051d0       0x28 build/usbd_desc.o
 .text.USBD_VCP_SerialStrDescriptor
                0x00000000080051f8       0x40 build/usbd_desc.o
                0x00000000080051f8                USBD_VCP_SerialStrDescriptor
 .text.USBD_VCP_ProductStrDescriptor
                0x0000000008005238       0x1c build/usbd_desc.o
                0x0000000008005238                USBD_VCP_ProductStrDescriptor
 .text.USBD_VCP_ManufacturerStrDescriptor
                0x0000000008005254       0x1c build/usbd_desc.o
                0x0000000008005254                USBD_VCP_ManufacturerStrDescriptor
 .text.USBD_VCP_ConfigStrDescriptor
                0x0000000008005270       0x1c build/usbd_desc.o
                0x0000000008005270                USBD_VCP_ConfigStrDescriptor
 .text.USBD_VCP_InterfaceStrDescriptor
                0x000000000800528c       0x1c build/usbd_desc.o
                0x000000000800528c                USBD_VCP_InterfaceStrDescriptor
 .text.CDC_Itf_DeInit
                0x00000000080052a8        0x4 build/usbd_cdc_interface.o
 .text.CDC_Itf_Receive
                0x00000000080052ac       0x20 build/usbd_cdc_interface.o
 .text.CDC_Itf_Init
                0x00000000080052cc       0x18 build/usbd_cdc_interface.o
 .text.CDC_Itf_Control
                0x00000000080052e4       0x58 build/usbd_cdc_interface.o
 .text.SPIx_Init
                0x000000000800533c       0x80 build/Drivers/BSP/STM32F3-Discovery/stm32f3_discovery.o
 .text.SPIx_WriteRead
                0x00000000080053bc       0x40 build/Drivers/BSP/STM32F3-Discovery/stm32f3_discovery.o
 .text.I2Cx_Init
                0x00000000080053fc       0x6c build/Drivers/BSP/STM32F3-Discovery/stm32f3_discovery.o
 .text.BSP_LED_Init
                0x0000000008005468       0x68 build/Drivers/BSP/STM32F3-Discovery/stm32f3_discovery.o
                0x0000000008005468                BSP_LED_Init
 .text.BSP_LED_On
                0x00000000080054d0       0x1c build/Drivers/BSP/STM32F3-Discovery/stm32f3_discovery.o
                0x00000000080054d0                BSP_LED_On
 .text.BSP_LED_Off
                0x00000000080054ec       0x1c build/Drivers/BSP/STM32F3-Discovery/stm32f3_discovery.o
                0x00000000080054ec                BSP_LED_Off
 .text.BSP_LED_Toggle
                0x0000000008005508       0x1c build/Drivers/BSP/STM32F3-Discovery/stm32f3_discovery.o
                0x0000000008005508                BSP_LED_Toggle
 .text.BSP_PB_Init
                0x0000000008005524       0x74 build/Drivers/BSP/STM32F3-Discovery/stm32f3_discovery.o
                0x0000000008005524                BSP_PB_Init
 .text.BSP_PB_GetState
                0x0000000008005598       0x14 build/Drivers/BSP/STM32F3-Discovery/stm32f3_discovery.o
                0x0000000008005598                BSP_PB_GetState
 .text.GYRO_IO_Init
                0x00000000080055ac       0x68 build/Drivers/BSP/STM32F3-Discovery/stm32f3_discovery.o
                0x00000000080055ac                GYRO_IO_Init
 .text.GYRO_IO_Write
                0x0000000008005614       0x44 build/Drivers/BSP/STM32F3-Discovery/stm32f3_discovery.o
                0x0000000008005614                GYRO_IO_Write
 .text.GYRO_IO_Read
                0x0000000008005658       0x48 build/Drivers/BSP/STM32F3-Discovery/stm32f3_discovery.o
                0x0000000008005658                GYRO_IO_Read
 .text.COMPASSACCELERO_IO_Init
                0x00000000080056a0       0x64 build/Drivers/BSP/STM32F3-Discovery/stm32f3_discovery.o
                0x00000000080056a0                COMPASSACCELERO_IO_Init
 .text.COMPASSACCELERO_IO_ITConfig
                0x0000000008005704       0x48 build/Drivers/BSP/STM32F3-Discovery/stm32f3_discovery.o
                0x0000000008005704                COMPASSACCELERO_IO_ITConfig
 .text.COMPASSACCELERO_IO_Write
                0x000000000800574c       0x3c build/Drivers/BSP/STM32F3-Discovery/stm32f3_discovery.o
                0x000000000800574c                COMPASSACCELERO_IO_Write
 .text.COMPASSACCELERO_IO_Read
                0x0000000008005788       0x40 build/Drivers/BSP/STM32F3-Discovery/stm32f3_discovery.o
                0x0000000008005788                COMPASSACCELERO_IO_Read
 .text.BSP_ACCELERO_Init
                0x00000000080057c8       0x30 build/Drivers/BSP/STM32F3-Discovery/stm32f3_discovery_accelerometer.o
                0x00000000080057c8                BSP_ACCELERO_Init
 .text.BSP_ACCELERO_GetXYZ
                0x00000000080057f8       0x10 build/Drivers/BSP/STM32F3-Discovery/stm32f3_discovery_accelerometer.o
                0x00000000080057f8                BSP_ACCELERO_GetXYZ
 .text.BSP_GYRO_Init
                0x0000000008005808       0x44 build/Drivers/BSP/STM32F3-Discovery/stm32f3_discovery_gyroscope.o
                0x0000000008005808                BSP_GYRO_Init
 .text.BSP_GYRO_GetXYZ
                0x000000000800584c       0x10 build/Drivers/BSP/STM32F3-Discovery/stm32f3_discovery_gyroscope.o
                0x000000000800584c                BSP_GYRO_GetXYZ
 .text.LSM303DLHC_AccInit
                0x000000000800585c       0x20 build/Drivers/BSP/Components/lsm303dlhc/lsm303dlhc.o
                0x000000000800585c                LSM303DLHC_AccInit
 .text.LSM303DLHC_AccReadID
                0x000000000800587c       0x12 build/Drivers/BSP/Components/lsm303dlhc/lsm303dlhc.o
                0x000000000800587c                LSM303DLHC_AccReadID
 .text.LSM303DLHC_AccRebootCmd
                0x000000000800588e       0x1c build/Drivers/BSP/Components/lsm303dlhc/lsm303dlhc.o
                0x000000000800588e                LSM303DLHC_AccRebootCmd
 .text.LSM303DLHC_AccFilterConfig
                0x00000000080058aa       0x1e build/Drivers/BSP/Components/lsm303dlhc/lsm303dlhc.o
                0x00000000080058aa                LSM303DLHC_AccFilterConfig
 .text.LSM303DLHC_AccFilterCmd
                0x00000000080058c8       0x1e build/Drivers/BSP/Components/lsm303dlhc/lsm303dlhc.o
                0x00000000080058c8                LSM303DLHC_AccFilterCmd
 .text.LSM303DLHC_AccReadXYZ
                0x00000000080058e6       0xe6 build/Drivers/BSP/Components/lsm303dlhc/lsm303dlhc.o
                0x00000000080058e6                LSM303DLHC_AccReadXYZ
 .text.LSM303DLHC_AccFilterClickCmd
                0x00000000080059cc       0x1e build/Drivers/BSP/Components/lsm303dlhc/lsm303dlhc.o
                0x00000000080059cc                LSM303DLHC_AccFilterClickCmd
 .text.LSM303DLHC_AccIT1Enable
                0x00000000080059ea       0x1e build/Drivers/BSP/Components/lsm303dlhc/lsm303dlhc.o
                0x00000000080059ea                LSM303DLHC_AccIT1Enable
 .text.LSM303DLHC_AccClickITEnable
                0x0000000008005a08       0x46 build/Drivers/BSP/Components/lsm303dlhc/lsm303dlhc.o
                0x0000000008005a08                LSM303DLHC_AccClickITEnable
 .text.LSM303DLHC_AccZClickITConfig
                0x0000000008005a4e       0x1c build/Drivers/BSP/Components/lsm303dlhc/lsm303dlhc.o
                0x0000000008005a4e                LSM303DLHC_AccZClickITConfig
 .text.L3GD20_Init
                0x0000000008005a6a       0x32 build/Drivers/BSP/Components/l3gd20/l3gd20.o
                0x0000000008005a6a                L3GD20_Init
 .text.L3GD20_ReadID
                0x0000000008005a9c       0x1c build/Drivers/BSP/Components/l3gd20/l3gd20.o
                0x0000000008005a9c                L3GD20_ReadID
 .text.L3GD20_RebootCmd
                0x0000000008005ab8       0x2c build/Drivers/BSP/Components/l3gd20/l3gd20.o
                0x0000000008005ab8                L3GD20_RebootCmd
 .text.L3GD20_INT1InterruptConfig
                0x0000000008005ae4       0x5c build/Drivers/BSP/Components/l3gd20/l3gd20.o
                0x0000000008005ae4                L3GD20_INT1InterruptConfig
 .text.L3GD20_EnableIT
                0x0000000008005b40       0x40 build/Drivers/BSP/Components/l3gd20/l3gd20.o
                0x0000000008005b40                L3GD20_EnableIT
 .text.L3GD20_DisableIT
                0x0000000008005b80       0x3c build/Drivers/BSP/Components/l3gd20/l3gd20.o
                0x0000000008005b80                L3GD20_DisableIT
 .text.L3GD20_FilterConfig
                0x0000000008005bbc       0x2e build/Drivers/BSP/Components/l3gd20/l3gd20.o
                0x0000000008005bbc                L3GD20_FilterConfig
 .text.L3GD20_FilterCmd
                0x0000000008005bea       0x2e build/Drivers/BSP/Components/l3gd20/l3gd20.o
                0x0000000008005bea                L3GD20_FilterCmd
 .text.L3GD20_ReadXYZAngRate
                0x0000000008005c18       0xd8 build/Drivers/BSP/Components/l3gd20/l3gd20.o
                0x0000000008005c18                L3GD20_ReadXYZAngRate
 .text.Reset_Handler
                0x0000000008005cf0       0x50 build/Drivers/CMSIS/Device/ST/STM32F3xx/Source/Templates/gcc/startup_stm32f303xc.o
                0x0000000008005cf0                Reset_Handler
 .text.Default_Handler
                0x0000000008005d40        0x2 build/Drivers/CMSIS/Device/ST/STM32F3xx/Source/Templates/gcc/startup_stm32f303xc.o
                0x0000000008005d40                RTC_Alarm_IRQHandler
                0x0000000008005d40                TIM8_TRG_COM_IRQHandler
                0x0000000008005d40                TIM8_CC_IRQHandler
                0x0000000008005d40                DebugMon_Handler
                0x0000000008005d40                TIM1_CC_IRQHandler
                0x0000000008005d40                HardFault_Handler
                0x0000000008005d40                USB_HP_IRQHandler
                0x0000000008005d40                PVD_IRQHandler
                0x0000000008005d40                TAMP_STAMP_IRQHandler
                0x0000000008005d40                PendSV_Handler
                0x0000000008005d40                NMI_Handler
                0x0000000008005d40                EXTI3_IRQHandler
                0x0000000008005d40                USB_HP_CAN_TX_IRQHandler
                0x0000000008005d40                EXTI0_IRQHandler
                0x0000000008005d40                I2C2_EV_IRQHandler
                0x0000000008005d40                FPU_IRQHandler
                0x0000000008005d40                TIM1_UP_TIM16_IRQHandler
                0x0000000008005d40                UsageFault_Handler
                0x0000000008005d40                ADC1_2_IRQHandler
                0x0000000008005d40                SPI1_IRQHandler
                0x0000000008005d40                CAN_SCE_IRQHandler
                0x0000000008005d40                TIM6_DAC_IRQHandler
                0x0000000008005d40                TIM8_UP_IRQHandler
                0x0000000008005d40                DMA2_Channel2_IRQHandler
                0x0000000008005d40                DMA1_Channel4_IRQHandler
                0x0000000008005d40                USART3_IRQHandler
                0x0000000008005d40                DMA1_Channel7_IRQHandler
                0x0000000008005d40                UART5_IRQHandler
                0x0000000008005d40                ADC3_IRQHandler
                0x0000000008005d40                TIM4_IRQHandler
                0x0000000008005d40                CAN_RX1_IRQHandler
                0x0000000008005d40                DMA2_Channel1_IRQHandler
                0x0000000008005d40                I2C1_EV_IRQHandler
                0x0000000008005d40                DMA1_Channel6_IRQHandler
                0x0000000008005d40                UART4_IRQHandler
                0x0000000008005d40                DMA2_Channel4_IRQHandler
                0x0000000008005d40                TIM3_IRQHandler
                0x0000000008005d40                RCC_IRQHandler
                0x0000000008005d40                DMA1_Channel1_IRQHandler
                0x0000000008005d40                Default_Handler
                0x0000000008005d40                USBWakeUp_RMP_IRQHandler
                0x0000000008005d40                EXTI15_10_IRQHandler
                0x0000000008005d40                TIM7_IRQHandler
                0x0000000008005d40                EXTI9_5_IRQHandler
                0x0000000008005d40                RTC_WKUP_IRQHandler
                0x0000000008005d40                SPI2_IRQHandler
                0x0000000008005d40                MemManage_Handler
                0x0000000008005d40                SVC_Handler
                0x0000000008005d40                DMA2_Channel5_IRQHandler
                0x0000000008005d40                DMA1_Channel5_IRQHandler
                0x0000000008005d40                USB_LP_IRQHandler
                0x0000000008005d40                EXTI4_IRQHandler
                0x0000000008005d40                TIM1_TRG_COM_TIM17_IRQHandler
                0x0000000008005d40                DMA1_Channel3_IRQHandler
                0x0000000008005d40                ADC4_IRQHandler
                0x0000000008005d40                WWDG_IRQHandler
                0x0000000008005d40                TIM2_IRQHandler
                0x0000000008005d40                COMP7_IRQHandler
                0x0000000008005d40                COMP1_2_3_IRQHandler
                0x0000000008005d40                EXTI1_IRQHandler
                0x0000000008005d40                USART2_IRQHandler
                0x0000000008005d40                COMP4_5_6_IRQHandler
                0x0000000008005d40                I2C2_ER_IRQHandler
                0x0000000008005d40                DMA1_Channel2_IRQHandler
                0x0000000008005d40                TIM8_BRK_IRQHandler
                0x0000000008005d40                FLASH_IRQHandler
                0x0000000008005d40                BusFault_Handler
                0x0000000008005d40                USART1_IRQHandler
                0x0000000008005d40                SPI3_IRQHandler
                0x0000000008005d40                I2C1_ER_IRQHandler
                0x0000000008005d40                USBWakeUp_IRQHandler
                0x0000000008005d40                DMA2_Channel3_IRQHandler
                0x0000000008005d40                EXTI2_TSC_IRQHandler
                0x0000000008005d40                TIM1_BRK_TIM15_IRQHandler
 *fill*         0x0000000008005d42        0x2 
 .text.atexit   0x0000000008005d44        0xc /usr/lib/gcc/arm-none-eabi/4.9.3/../../../arm-none-eabi/lib/armv7e-m/fpu/libg.a(lib_a-atexit.o)
                0x0000000008005d44                atexit
 .text.__errno  0x0000000008005d50        0xc /usr/lib/gcc/arm-none-eabi/4.9.3/../../../arm-none-eabi/lib/armv7e-m/fpu/libg.a(lib_a-errno.o)
                0x0000000008005d50                __errno
 .text.__libc_fini_array
                0x0000000008005d5c       0x2c /usr/lib/gcc/arm-none-eabi/4.9.3/../../../arm-none-eabi/lib/armv7e-m/fpu/libg.a(lib_a-fini.o)
                0x0000000008005d5c                __libc_fini_array
 .text.__libc_init_array
                0x0000000008005d88       0x50 /usr/lib/gcc/arm-none-eabi/4.9.3/../../../arm-none-eabi/lib/armv7e-m/fpu/libg.a(lib_a-init.o)
                0x0000000008005d88                __libc_init_array
 .text.memset   0x0000000008005dd8       0x9c /usr/lib/gcc/arm-none-eabi/4.9.3/../../../arm-none-eabi/lib/armv7e-m/fpu/libg.a(lib_a-memset.o)
                0x0000000008005dd8                memset
 .text.printf   0x0000000008005e74       0x28 /usr/lib/gcc/arm-none-eabi/4.9.3/../../../arm-none-eabi/lib/armv7e-m/fpu/libg.a(lib_a-printf.o)
                0x0000000008005e74                printf
 .text.putchar  0x0000000008005e9c       0x14 /usr/lib/gcc/arm-none-eabi/4.9.3/../../../arm-none-eabi/lib/armv7e-m/fpu/libg.a(lib_a-putchar.o)
                0x0000000008005e9c                putchar
 .text._puts_r  0x0000000008005eb0       0x64 /usr/lib/gcc/arm-none-eabi/4.9.3/../../../arm-none-eabi/lib/armv7e-m/fpu/libg.a(lib_a-puts.o)
                0x0000000008005eb0                _puts_r
 .text.puts     0x0000000008005f14       0x10 /usr/lib/gcc/arm-none-eabi/4.9.3/../../../arm-none-eabi/lib/armv7e-m/fpu/libg.a(lib_a-puts.o)
                0x0000000008005f14                puts
 .text.setvbuf  0x0000000008005f24       0xf8 /usr/lib/gcc/arm-none-eabi/4.9.3/../../../arm-none-eabi/lib/armv7e-m/fpu/libg.a(lib_a-setvbuf.o)
                0x0000000008005f24                setvbuf
 .text.strcasecmp
                0x000000000800601c       0x44 /usr/lib/gcc/arm-none-eabi/4.9.3/../../../arm-none-eabi/lib/armv7e-m/fpu/libg.a(lib_a-strcasecmp.o)
                0x000000000800601c                strcasecmp
 .text.strcpy   0x0000000008006060       0xbc /usr/lib/gcc/arm-none-eabi/4.9.3/../../../arm-none-eabi/lib/armv7e-m/fpu/libg.a(lib_a-strcpy.o)
                0x0000000008006060                strcpy
 .text.strlen   0x000000000800611c       0x5c /usr/lib/gcc/arm-none-eabi/4.9.3/../../../arm-none-eabi/lib/armv7e-m/fpu/libg.a(lib_a-strlen.o)
                0x000000000800611c                strlen
 .text.strtok   0x0000000008006178       0x10 /usr/lib/gcc/arm-none-eabi/4.9.3/../../../arm-none-eabi/lib/armv7e-m/fpu/libg.a(lib_a-strtok.o)
                0x0000000008006178                strtok
 .text.__strtok_r
                0x0000000008006188       0x64 /usr/lib/gcc/arm-none-eabi/4.9.3/../../../arm-none-eabi/lib/armv7e-m/fpu/libg.a(lib_a-strtok_r.o)
                0x0000000008006188                __strtok_r
 .text._strtoul_r
                0x00000000080061ec      0x128 /usr/lib/gcc/arm-none-eabi/4.9.3/../../../arm-none-eabi/lib/armv7e-m/fpu/libg.a(lib_a-strtoul.o)
                0x00000000080061ec                _strtoul_r
 .text.strtoul  0x0000000008006314       0x18 /usr/lib/gcc/arm-none-eabi/4.9.3/../../../arm-none-eabi/lib/armv7e-m/fpu/libg.a(lib_a-strtoul.o)
                0x0000000008006314                strtoul
 *fill*         0x000000000800632c        0x4 
 .text._vfprintf_r
                0x0000000008006330     0x1428 /usr/lib/gcc/arm-none-eabi/4.9.3/../../../arm-none-eabi/lib/armv7e-m/fpu/libg.a(lib_a-vfprintf.o)
                0x0000000008006330                _vfprintf_r
 .text.__sbprintf
                0x0000000008007758       0x78 /usr/lib/gcc/arm-none-eabi/4.9.3/../../../arm-none-eabi/lib/armv7e-m/fpu/libg.a(lib_a-vfprintf.o)
 .text.__swsetup_r
                0x00000000080077d0       0xc4 /usr/lib/gcc/arm-none-eabi/4.9.3/../../../arm-none-eabi/lib/armv7e-m/fpu/libg.a(lib_a-wsetup.o)
                0x00000000080077d0                __swsetup_r
 .text.__register_exitproc
                0x0000000008007894       0xa4 /usr/lib/gcc/arm-none-eabi/4.9.3/../../../arm-none-eabi/lib/armv7e-m/fpu/libg.a(lib_a-__atexit.o)
                0x0000000008007894                __register_exitproc
 .text.startup.register_fini
                0x0000000008007938       0x14 /usr/lib/gcc/arm-none-eabi/4.9.3/../../../arm-none-eabi/lib/armv7e-m/fpu/libg.a(lib_a-__call_atexit.o)
 .text.quorem   0x000000000800794c      0x12c /usr/lib/gcc/arm-none-eabi/4.9.3/../../../arm-none-eabi/lib/armv7e-m/fpu/libg.a(lib_a-dtoa.o)
 .text._dtoa_r  0x0000000008007a78      0xea8 /usr/lib/gcc/arm-none-eabi/4.9.3/../../../arm-none-eabi/lib/armv7e-m/fpu/libg.a(lib_a-dtoa.o)
                0x0000000008007a78                _dtoa_r
 .text.__sflush_r
                0x0000000008008920      0x154 /usr/lib/gcc/arm-none-eabi/4.9.3/../../../arm-none-eabi/lib/armv7e-m/fpu/libg.a(lib_a-fflush.o)
                0x0000000008008920                __sflush_r
 .text._fflush_r
                0x0000000008008a74       0x2c /usr/lib/gcc/arm-none-eabi/4.9.3/../../../arm-none-eabi/lib/armv7e-m/fpu/libg.a(lib_a-fflush.o)
                0x0000000008008a74                _fflush_r
 .text._cleanup_r
                0x0000000008008aa0        0xc /usr/lib/gcc/arm-none-eabi/4.9.3/../../../arm-none-eabi/lib/armv7e-m/fpu/libg.a(lib_a-findfp.o)
                0x0000000008008aa0                _cleanup_r
 .text.__sinit.part.1
                0x0000000008008aac       0xf0 /usr/lib/gcc/arm-none-eabi/4.9.3/../../../arm-none-eabi/lib/armv7e-m/fpu/libg.a(lib_a-findfp.o)
 .text.__sinit  0x0000000008008b9c        0xc /usr/lib/gcc/arm-none-eabi/4.9.3/../../../arm-none-eabi/lib/armv7e-m/fpu/libg.a(lib_a-findfp.o)
                0x0000000008008b9c                __sinit
 .text.__sfp_lock_acquire
                0x0000000008008ba8        0x4 /usr/lib/gcc/arm-none-eabi/4.9.3/../../../arm-none-eabi/lib/armv7e-m/fpu/libg.a(lib_a-findfp.o)
                0x0000000008008ba8                __sfp_lock_acquire
 .text.__sfp_lock_release
                0x0000000008008bac        0x4 /usr/lib/gcc/arm-none-eabi/4.9.3/../../../arm-none-eabi/lib/armv7e-m/fpu/libg.a(lib_a-findfp.o)
                0x0000000008008bac                __sfp_lock_release
 .text._malloc_trim_r
                0x0000000008008bb0       0x9c /usr/lib/gcc/arm-none-eabi/4.9.3/../../../arm-none-eabi/lib/armv7e-m/fpu/libg.a(lib_a-freer.o)
                0x0000000008008bb0                _malloc_trim_r
 .text._free_r  0x0000000008008c4c      0x1b0 /usr/lib/gcc/arm-none-eabi/4.9.3/../../../arm-none-eabi/lib/armv7e-m/fpu/libg.a(lib_a-freer.o)
                0x0000000008008c4c                _free_r
 .text.__sfvwrite_r
                0x0000000008008dfc      0x318 /usr/lib/gcc/arm-none-eabi/4.9.3/../../../arm-none-eabi/lib/armv7e-m/fpu/libg.a(lib_a-fvwrite.o)
                0x0000000008008dfc                __sfvwrite_r
 .text._fwalk_reent
                0x0000000008009114       0x54 /usr/lib/gcc/arm-none-eabi/4.9.3/../../../arm-none-eabi/lib/armv7e-m/fpu/libg.a(lib_a-fwalk.o)
                0x0000000008009114                _fwalk_reent
 .text.__locale_charset
                0x0000000008009168        0x8 /usr/lib/gcc/arm-none-eabi/4.9.3/../../../arm-none-eabi/lib/armv7e-m/fpu/libg.a(lib_a-locale.o)
                0x0000000008009168                __locale_charset
 .text.__locale_mb_cur_max
                0x0000000008009170        0xc /usr/lib/gcc/arm-none-eabi/4.9.3/../../../arm-none-eabi/lib/armv7e-m/fpu/libg.a(lib_a-locale.o)
                0x0000000008009170                __locale_mb_cur_max
 .text._localeconv_r
                0x000000000800917c        0x8 /usr/lib/gcc/arm-none-eabi/4.9.3/../../../arm-none-eabi/lib/armv7e-m/fpu/libg.a(lib_a-locale.o)
                0x000000000800917c                _localeconv_r
 .text.__smakebuf_r
                0x0000000008009184       0xe0 /usr/lib/gcc/arm-none-eabi/4.9.3/../../../arm-none-eabi/lib/armv7e-m/fpu/libg.a(lib_a-makebuf.o)
                0x0000000008009184                __smakebuf_r
 .text.malloc   0x0000000008009264       0x10 /usr/lib/gcc/arm-none-eabi/4.9.3/../../../arm-none-eabi/lib/armv7e-m/fpu/libg.a(lib_a-malloc.o)
                0x0000000008009264                malloc
 .text._malloc_r
                0x0000000008009274      0x524 /usr/lib/gcc/arm-none-eabi/4.9.3/../../../arm-none-eabi/lib/armv7e-m/fpu/libg.a(lib_a-mallocr.o)
                0x0000000008009274                _malloc_r
 .text.memchr   0x0000000008009798       0x94 /usr/lib/gcc/arm-none-eabi/4.9.3/../../../arm-none-eabi/lib/armv7e-m/fpu/libg.a(lib_a-memchr.o)
                0x0000000008009798                memchr
 .text.memmove  0x000000000800982c       0xc8 /usr/lib/gcc/arm-none-eabi/4.9.3/../../../arm-none-eabi/lib/armv7e-m/fpu/libg.a(lib_a-memmove.o)
                0x000000000800982c                memmove
 .text.__malloc_lock
                0x00000000080098f4        0x4 /usr/lib/gcc/arm-none-eabi/4.9.3/../../../arm-none-eabi/lib/armv7e-m/fpu/libg.a(lib_a-mlock.o)
                0x00000000080098f4                __malloc_lock
 .text.__malloc_unlock
                0x00000000080098f8        0x4 /usr/lib/gcc/arm-none-eabi/4.9.3/../../../arm-none-eabi/lib/armv7e-m/fpu/libg.a(lib_a-mlock.o)
                0x00000000080098f8                __malloc_unlock
 .text._Balloc  0x00000000080098fc       0x4c /usr/lib/gcc/arm-none-eabi/4.9.3/../../../arm-none-eabi/lib/armv7e-m/fpu/libg.a(lib_a-mprec.o)
                0x00000000080098fc                _Balloc
 .text._Bfree   0x0000000008009948       0x14 /usr/lib/gcc/arm-none-eabi/4.9.3/../../../arm-none-eabi/lib/armv7e-m/fpu/libg.a(lib_a-mprec.o)
                0x0000000008009948                _Bfree
 .text.__multadd
                0x000000000800995c       0x84 /usr/lib/gcc/arm-none-eabi/4.9.3/../../../arm-none-eabi/lib/armv7e-m/fpu/libg.a(lib_a-mprec.o)
                0x000000000800995c                __multadd
 .text.__hi0bits
                0x00000000080099e0       0x40 /usr/lib/gcc/arm-none-eabi/4.9.3/../../../arm-none-eabi/lib/armv7e-m/fpu/libg.a(lib_a-mprec.o)
                0x00000000080099e0                __hi0bits
 .text.__lo0bits
                0x0000000008009a20       0x5c /usr/lib/gcc/arm-none-eabi/4.9.3/../../../arm-none-eabi/lib/armv7e-m/fpu/libg.a(lib_a-mprec.o)
                0x0000000008009a20                __lo0bits
 .text.__i2b    0x0000000008009a7c       0x14 /usr/lib/gcc/arm-none-eabi/4.9.3/../../../arm-none-eabi/lib/armv7e-m/fpu/libg.a(lib_a-mprec.o)
                0x0000000008009a7c                __i2b
 .text.__multiply
                0x0000000008009a90      0x134 /usr/lib/gcc/arm-none-eabi/4.9.3/../../../arm-none-eabi/lib/armv7e-m/fpu/libg.a(lib_a-mprec.o)
                0x0000000008009a90                __multiply
 .text.__pow5mult
                0x0000000008009bc4       0xa0 /usr/lib/gcc/arm-none-eabi/4.9.3/../../../arm-none-eabi/lib/armv7e-m/fpu/libg.a(lib_a-mprec.o)
                0x0000000008009bc4                __pow5mult
 .text.__lshift
                0x0000000008009c64       0xac /usr/lib/gcc/arm-none-eabi/4.9.3/../../../arm-none-eabi/lib/armv7e-m/fpu/libg.a(lib_a-mprec.o)
                0x0000000008009c64                __lshift
 .text.__mcmp   0x0000000008009d10       0x48 /usr/lib/gcc/arm-none-eabi/4.9.3/../../../arm-none-eabi/lib/armv7e-m/fpu/libg.a(lib_a-mprec.o)
                0x0000000008009d10                __mcmp
 .text.__mdiff  0x0000000008009d58       0xd4 /usr/lib/gcc/arm-none-eabi/4.9.3/../../../arm-none-eabi/lib/armv7e-m/fpu/libg.a(lib_a-mprec.o)
                0x0000000008009d58                __mdiff
 .text.__d2b    0x0000000008009e2c       0xbc /usr/lib/gcc/arm-none-eabi/4.9.3/../../../arm-none-eabi/lib/armv7e-m/fpu/libg.a(lib_a-mprec.o)
                0x0000000008009e2c                __d2b
 .text._putc_r  0x0000000008009ee8       0x58 /usr/lib/gcc/arm-none-eabi/4.9.3/../../../arm-none-eabi/lib/armv7e-m/fpu/libg.a(lib_a-putc.o)
                0x0000000008009ee8                _putc_r
 .text._realloc_r
                0x0000000008009f40      0x3ec /usr/lib/gcc/arm-none-eabi/4.9.3/../../../arm-none-eabi/lib/armv7e-m/fpu/libg.a(lib_a-reallocr.o)
                0x0000000008009f40                _realloc_r
 .text.__fpclassifyd
                0x000000000800a32c       0x5c /usr/lib/gcc/arm-none-eabi/4.9.3/../../../arm-none-eabi/lib/armv7e-m/fpu/libg.a(lib_a-s_fpclassify.o)
                0x000000000800a32c                __fpclassifyd
 .text.__sread  0x000000000800a388       0x24 /usr/lib/gcc/arm-none-eabi/4.9.3/../../../arm-none-eabi/lib/armv7e-m/fpu/libg.a(lib_a-stdio.o)
                0x000000000800a388                __sread
 .text.__swrite
                0x000000000800a3ac       0x38 /usr/lib/gcc/arm-none-eabi/4.9.3/../../../arm-none-eabi/lib/armv7e-m/fpu/libg.a(lib_a-stdio.o)
                0x000000000800a3ac                __swrite
 .text.__sseek  0x000000000800a3e4       0x20 /usr/lib/gcc/arm-none-eabi/4.9.3/../../../arm-none-eabi/lib/armv7e-m/fpu/libg.a(lib_a-stdio.o)
                0x000000000800a3e4                __sseek
 .text.__sclose
                0x000000000800a404        0x8 /usr/lib/gcc/arm-none-eabi/4.9.3/../../../arm-none-eabi/lib/armv7e-m/fpu/libg.a(lib_a-stdio.o)
                0x000000000800a404                __sclose
 .text.__sprint_r.part.0
                0x000000000800a40c       0x78 /usr/lib/gcc/arm-none-eabi/4.9.3/../../../arm-none-eabi/lib/armv7e-m/fpu/libg.a(lib_a-vfiprintf.o)
 .text.__sprint_r
                0x000000000800a484       0x18 /usr/lib/gcc/arm-none-eabi/4.9.3/../../../arm-none-eabi/lib/armv7e-m/fpu/libg.a(lib_a-vfiprintf.o)
                0x000000000800a484                __sprint_r
 .text.__swbuf_r
                0x000000000800a49c       0xa8 /usr/lib/gcc/arm-none-eabi/4.9.3/../../../arm-none-eabi/lib/armv7e-m/fpu/libg.a(lib_a-wbuf.o)
                0x000000000800a49c                __swbuf_r
 .text._calloc_r
                0x000000000800a544       0x60 /usr/lib/gcc/arm-none-eabi/4.9.3/../../../arm-none-eabi/lib/armv7e-m/fpu/libg.a(lib_a-callocr.o)
                0x000000000800a544                _calloc_r
 .text._fclose_r
                0x000000000800a5a4       0x84 /usr/lib/gcc/arm-none-eabi/4.9.3/../../../arm-none-eabi/lib/armv7e-m/fpu/libg.a(lib_a-fclose.o)
                0x000000000800a5a4                _fclose_r
 .text.__fputwc
                0x000000000800a628       0xb0 /usr/lib/gcc/arm-none-eabi/4.9.3/../../../arm-none-eabi/lib/armv7e-m/fpu/libg.a(lib_a-fputwc.o)
                0x000000000800a628                __fputwc
 .text._fputwc_r
                0x000000000800a6d8       0x24 /usr/lib/gcc/arm-none-eabi/4.9.3/../../../arm-none-eabi/lib/armv7e-m/fpu/libg.a(lib_a-fputwc.o)
                0x000000000800a6d8                _fputwc_r
 .text._wcrtomb_r
                0x000000000800a6fc       0x54 /usr/lib/gcc/arm-none-eabi/4.9.3/../../../arm-none-eabi/lib/armv7e-m/fpu/libg.a(lib_a-wcrtomb.o)
                0x000000000800a6fc                _wcrtomb_r
 .text.__ascii_wctomb
                0x000000000800a750       0x1c /usr/lib/gcc/arm-none-eabi/4.9.3/../../../arm-none-eabi/lib/armv7e-m/fpu/libg.a(lib_a-wctomb_r.o)
                0x000000000800a750                __ascii_wctomb
 *(.glue_7)
 .glue_7        0x000000000800a76c        0x0 linker stubs
 *(.glue_7t)
 .glue_7t       0x000000000800a76c        0x0 linker stubs
 *(.eh_frame)
 .eh_frame      0x000000000800a76c        0x0 /usr/lib/gcc/arm-none-eabi/4.9.3/armv7e-m/fpu/crtbegin.o
 *(.init)
 .init          0x000000000800a76c        0x4 /usr/lib/gcc/arm-none-eabi/4.9.3/armv7e-m/fpu/crti.o
                0x000000000800a76c                _init
 .init          0x000000000800a770        0x8 /usr/lib/gcc/arm-none-eabi/4.9.3/armv7e-m/fpu/crtn.o
 *(.fini)
 .fini          0x000000000800a778        0x4 /usr/lib/gcc/arm-none-eabi/4.9.3/armv7e-m/fpu/crti.o
                0x000000000800a778                _fini
 .fini          0x000000000800a77c        0x8 /usr/lib/gcc/arm-none-eabi/4.9.3/armv7e-m/fpu/crtn.o
                0x000000000800a784                . = ALIGN (0x4)
                0x000000000800a784                _etext = .

.vfp11_veneer   0x000000000800a784        0x0
 .vfp11_veneer  0x000000000800a784        0x0 linker stubs

.v4_bx          0x000000000800a784        0x0
 .v4_bx         0x000000000800a784        0x0 linker stubs

.iplt           0x000000000800a784        0x0
 .iplt          0x000000000800a784        0x0 /usr/lib/gcc/arm-none-eabi/4.9.3/armv7e-m/fpu/crtbegin.o

.rodata         0x000000000800a788    0x109d8
                0x000000000800a788                . = ALIGN (0x4)
 *(.rodata)
 *(.rodata*)
 .rodata.str1.1
                0x000000000800a788      0x1ce build/main.o
                                        0x1d9 (size before relaxing)
 .rodata.LEDs   0x000000000800a956        0x8 build/main.o
                0x000000000800a956                LEDs
 .rodata.str1.1
                0x000000000800a95e       0x5d build/mytest.o
 .rodata.str1.1
                0x000000000800a9bb       0x38 build/simple_task.o
 .rodata.str1.1
                0x000000000800a9f3       0x52 build/task_executive1.o
 .rodata.str1.1
                0x000000000800aa45       0xff build/task_test1.o
                                        0x110 (size before relaxing)
 .rodata.str1.1
                0x000000000800ab44       0x4b build/monitor.o
                                         0x4d (size before relaxing)
 .rodata.__FUNCTION__.5821
                0x000000000800ab8f        0x6 build/parser.o
 .rodata.str1.1
                0x000000000800ab95       0xe4 build/parser.o
 .rodata.str1.1
                0x000000000800ac79      0x1fc build/dump.o
                                        0x1fe (size before relaxing)
 .rodata.str1.1
                0x000000000800ae75       0xaa build/terminal.o
                                         0xac (size before relaxing)
 .rodata.str1.1
                0x000000000800af1f      0x4b8 build/decoder/decoder.o
                                        0x4c0 (size before relaxing)
 *fill*         0x000000000800b3d7        0x1 
 .rodata.TIM1_CCER_fields
                0x000000000800b3d8       0xa0 build/decoder/STM32F30x_decoder.o
                0x000000000800b3d8                TIM1_CCER_fields
 .rodata.DMA1_registers
                0x000000000800b478      0x174 build/decoder/STM32F30x_decoder.o
                0x000000000800b478                DMA1_registers
 .rodata.SPI1_DR_fields
                0x000000000800b5ec       0x10 build/decoder/STM32F30x_decoder.o
                0x000000000800b5ec                SPI1_DR_fields
 .rodata.ADC1_2_CSR_fields
                0x000000000800b5fc       0xb8 build/decoder/STM32F30x_decoder.o
                0x000000000800b5fc                ADC1_2_CSR_fields
 .rodata.USB_FS_USB_EP3R_fields
                0x000000000800b6b4       0x58 build/decoder/STM32F30x_decoder.o
                0x000000000800b6b4                USB_FS_USB_EP3R_fields
 .rodata.GPIOB_PUPDR_fields
                0x000000000800b70c       0x88 build/decoder/STM32F30x_decoder.o
                0x000000000800b70c                GPIOB_PUPDR_fields
 .rodata.TSC_IOG8CR_fields
                0x000000000800b794       0x10 build/decoder/STM32F30x_decoder.o
                0x000000000800b794                TSC_IOG8CR_fields
 .rodata.TIM1_CCMR3_Output_fields
                0x000000000800b7a4       0x58 build/decoder/STM32F30x_decoder.o
                0x000000000800b7a4                TIM1_CCMR3_Output_fields
 .rodata.TIM1_SMCR_fields
                0x000000000800b7fc       0x50 build/decoder/STM32F30x_decoder.o
                0x000000000800b7fc                TIM1_SMCR_fields
 .rodata.RTC_SHIFTR_fields
                0x000000000800b84c       0x18 build/decoder/STM32F30x_decoder.o
                0x000000000800b84c                RTC_SHIFTR_fields
 .rodata.CAN_F24R1_fields
                0x000000000800b864      0x108 build/decoder/STM32F30x_decoder.o
                0x000000000800b864                CAN_F24R1_fields
 .rodata.RTC_TSDR_fields
                0x000000000800b96c       0x30 build/decoder/STM32F30x_decoder.o
                0x000000000800b96c                RTC_TSDR_fields
 .rodata.RTC_BKP22R_fields
                0x000000000800b99c       0x10 build/decoder/STM32F30x_decoder.o
                0x000000000800b99c                RTC_BKP22R_fields
 .rodata.TIM1_CCMR2_Output_fields
                0x000000000800b9ac       0x68 build/decoder/STM32F30x_decoder.o
                0x000000000800b9ac                TIM1_CCMR2_Output_fields
 .rodata.TIM17_RCR_fields
                0x000000000800ba14       0x10 build/decoder/STM32F30x_decoder.o
                0x000000000800ba14                TIM17_RCR_fields
 .rodata.EXTI_EMR1_fields
                0x000000000800ba24      0x108 build/decoder/STM32F30x_decoder.o
                0x000000000800ba24                EXTI_EMR1_fields
 .rodata.CAN_F11R2_fields
                0x000000000800bb2c      0x108 build/decoder/STM32F30x_decoder.o
                0x000000000800bb2c                CAN_F11R2_fields
 .rodata.USB_FS_ISTR_fields
                0x000000000800bc34       0x58 build/decoder/STM32F30x_decoder.o
                0x000000000800bc34                USB_FS_ISTR_fields
 .rodata.I2C1_ICR_fields
                0x000000000800bc8c       0x50 build/decoder/STM32F30x_decoder.o
                0x000000000800bc8c                I2C1_ICR_fields
 .rodata.TIM16_ARR_fields
                0x000000000800bcdc       0x10 build/decoder/STM32F30x_decoder.o
                0x000000000800bcdc                TIM16_ARR_fields
 .rodata.RTC_ISR_fields
                0x000000000800bcec       0x90 build/decoder/STM32F30x_decoder.o
                0x000000000800bcec                RTC_ISR_fields
 .rodata.RTC_BKP27R_fields
                0x000000000800bd7c       0x10 build/decoder/STM32F30x_decoder.o
                0x000000000800bd7c                RTC_BKP27R_fields
 .rodata.TIM8_CCR6_fields
                0x000000000800bd8c       0x10 build/decoder/STM32F30x_decoder.o
                0x000000000800bd8c                TIM8_CCR6_fields
 .rodata.TIM17_BDTR_fields
                0x000000000800bd9c       0x50 build/decoder/STM32F30x_decoder.o
                0x000000000800bd9c                TIM17_BDTR_fields
 .rodata.TIM8_CCMR1_Input_fields
                0x000000000800bdec       0x38 build/decoder/STM32F30x_decoder.o
                0x000000000800bdec                TIM8_CCMR1_Input_fields
 .rodata.DAC_registers
                0x000000000800be24       0xb4 build/decoder/STM32F30x_decoder.o
                0x000000000800be24                DAC_registers
 .rodata.IWDG_WINR_fields
                0x000000000800bed8       0x10 build/decoder/STM32F30x_decoder.o
                0x000000000800bed8                IWDG_WINR_fields
 .rodata.CAN_F19R2_fields
                0x000000000800bee8      0x108 build/decoder/STM32F30x_decoder.o
                0x000000000800bee8                CAN_F19R2_fields
 .rodata.CAN_RF1R_fields
                0x000000000800bff0       0x28 build/decoder/STM32F30x_decoder.o
                0x000000000800bff0                CAN_RF1R_fields
 .rodata.RTC_BKP16R_fields
                0x000000000800c018       0x10 build/decoder/STM32F30x_decoder.o
                0x000000000800c018                RTC_BKP16R_fields
 .rodata.RTC_CALR_fields
                0x000000000800c028       0x28 build/decoder/STM32F30x_decoder.o
                0x000000000800c028                RTC_CALR_fields
 .rodata.TIM2_SR_fields
                0x000000000800c050       0x58 build/decoder/STM32F30x_decoder.o
                0x000000000800c050                TIM2_SR_fields
 .rodata.SYSCFG_EXTICR2_fields
                0x000000000800c0a8       0x28 build/decoder/STM32F30x_decoder.o
                0x000000000800c0a8                SYSCFG_EXTICR2_fields
 .rodata.CAN_MCR_fields
                0x000000000800c0d0       0x58 build/decoder/STM32F30x_decoder.o
                0x000000000800c0d0                CAN_MCR_fields
 .rodata.TIM17_SR_fields
                0x000000000800c128       0x38 build/decoder/STM32F30x_decoder.o
                0x000000000800c128                TIM17_SR_fields
 .rodata.USART1_GTPR_fields
                0x000000000800c160       0x18 build/decoder/STM32F30x_decoder.o
                0x000000000800c160                USART1_GTPR_fields
 .rodata.DAC_DOR1_fields
                0x000000000800c178       0x10 build/decoder/STM32F30x_decoder.o
                0x000000000800c178                DAC_DOR1_fields
 .rodata.CAN_F1R1_fields
                0x000000000800c188      0x108 build/decoder/STM32F30x_decoder.o
                0x000000000800c188                CAN_F1R1_fields
 .rodata.CAN_FA1R_fields
                0x000000000800c290       0xe8 build/decoder/STM32F30x_decoder.o
                0x000000000800c290                CAN_FA1R_fields
 .rodata.RTC_BKP6R_fields
                0x000000000800c378       0x10 build/decoder/STM32F30x_decoder.o
                0x000000000800c378                RTC_BKP6R_fields
 .rodata.RCC_CFGR_fields
                0x000000000800c388       0x68 build/decoder/STM32F30x_decoder.o
                0x000000000800c388                RCC_CFGR_fields
 .rodata.PWR_CR_fields
                0x000000000800c3f0       0x40 build/decoder/STM32F30x_decoder.o
                0x000000000800c3f0                PWR_CR_fields
 .rodata.NVIC_ISER0_fields
                0x000000000800c430       0x10 build/decoder/STM32F30x_decoder.o
                0x000000000800c430                NVIC_ISER0_fields
 .rodata.DMA1_CPAR7_fields
                0x000000000800c440       0x10 build/decoder/STM32F30x_decoder.o
                0x000000000800c440                DMA1_CPAR7_fields
 .rodata.TSC_IOHCR_fields
                0x000000000800c450      0x108 build/decoder/STM32F30x_decoder.o
                0x000000000800c450                TSC_IOHCR_fields
 .rodata.CAN_F27R1_fields
                0x000000000800c558      0x108 build/decoder/STM32F30x_decoder.o
                0x000000000800c558                CAN_F27R1_fields
 .rodata.TIM6_ARR_fields
                0x000000000800c660       0x10 build/decoder/STM32F30x_decoder.o
                0x000000000800c660                TIM6_ARR_fields
 .rodata.CAN_F12R1_fields
                0x000000000800c670      0x108 build/decoder/STM32F30x_decoder.o
                0x000000000800c670                CAN_F12R1_fields
 .rodata.TIM15_DCR_fields
                0x000000000800c778       0x18 build/decoder/STM32F30x_decoder.o
                0x000000000800c778                TIM15_DCR_fields
 .rodata.NVIC_IPR18_fields
                0x000000000800c790       0x28 build/decoder/STM32F30x_decoder.o
                0x000000000800c790                NVIC_IPR18_fields
 .rodata.RTC_BKP13R_fields
                0x000000000800c7b8       0x10 build/decoder/STM32F30x_decoder.o
                0x000000000800c7b8                RTC_BKP13R_fields
 .rodata.CAN_BTR_fields
                0x000000000800c7c8       0x38 build/decoder/STM32F30x_decoder.o
                0x000000000800c7c8                CAN_BTR_fields
 .rodata.TIM15_BDTR_fields
                0x000000000800c800       0x50 build/decoder/STM32F30x_decoder.o
                0x000000000800c800                TIM15_BDTR_fields
 .rodata.NVIC_IPR1_fields
                0x000000000800c850       0x28 build/decoder/STM32F30x_decoder.o
                0x000000000800c850                NVIC_IPR1_fields
 .rodata.TIM15_PSC_fields
                0x000000000800c878       0x10 build/decoder/STM32F30x_decoder.o
                0x000000000800c878                TIM15_PSC_fields
 .rodata.Flash_ACR_fields
                0x000000000800c888       0x20 build/decoder/STM32F30x_decoder.o
                0x000000000800c888                Flash_ACR_fields
 .rodata.TIM17_CCMR1_Output_fields
                0x000000000800c8a8       0x30 build/decoder/STM32F30x_decoder.o
                0x000000000800c8a8                TIM17_CCMR1_Output_fields
 .rodata.TIM2_ARR_fields
                0x000000000800c8d8       0x18 build/decoder/STM32F30x_decoder.o
                0x000000000800c8d8                TIM2_ARR_fields
 .rodata.Flash_registers
                0x000000000800c8f0       0x6c build/decoder/STM32F30x_decoder.o
                0x000000000800c8f0                Flash_registers
 .rodata.CAN_TDH0R_fields
                0x000000000800c95c       0x28 build/decoder/STM32F30x_decoder.o
                0x000000000800c95c                CAN_TDH0R_fields
 .rodata.TIM1_DCR_fields
                0x000000000800c984       0x18 build/decoder/STM32F30x_decoder.o
                0x000000000800c984                TIM1_DCR_fields
 .rodata.CAN_TI2R_fields
                0x000000000800c99c       0x30 build/decoder/STM32F30x_decoder.o
                0x000000000800c99c                CAN_TI2R_fields
 .rodata.ADC1_IER_fields
                0x000000000800c9cc       0x60 build/decoder/STM32F30x_decoder.o
                0x000000000800c9cc                ADC1_IER_fields
 .rodata.NVIC_ICPR2_fields
                0x000000000800ca2c       0x10 build/decoder/STM32F30x_decoder.o
                0x000000000800ca2c                NVIC_ICPR2_fields
 .rodata.EXTI_IMR1_fields
                0x000000000800ca3c      0x108 build/decoder/STM32F30x_decoder.o
                0x000000000800ca3c                EXTI_IMR1_fields
 .rodata.TSC_IOASCR_fields
                0x000000000800cb44      0x108 build/decoder/STM32F30x_decoder.o
                0x000000000800cb44                TSC_IOASCR_fields
 .rodata.RCC_CFGR2_fields
                0x000000000800cc4c       0x20 build/decoder/STM32F30x_decoder.o
                0x000000000800cc4c                RCC_CFGR2_fields
 .rodata.TIM1_PSC_fields
                0x000000000800cc6c       0x10 build/decoder/STM32F30x_decoder.o
                0x000000000800cc6c                TIM1_PSC_fields
 .rodata.Flash_KEYR_fields
                0x000000000800cc7c       0x10 build/decoder/STM32F30x_decoder.o
                0x000000000800cc7c                Flash_KEYR_fields
 .rodata.TIM8_CR2_fields
                0x000000000800cc8c       0x80 build/decoder/STM32F30x_decoder.o
                0x000000000800cc8c                TIM8_CR2_fields
 .rodata.ADC1_CFGR_fields
                0x000000000800cd0c       0xa0 build/decoder/STM32F30x_decoder.o
                0x000000000800cd0c                ADC1_CFGR_fields
 .rodata.TIM17_EGR_fields
                0x000000000800cdac       0x30 build/decoder/STM32F30x_decoder.o
                0x000000000800cdac                TIM17_EGR_fields
 .rodata.TSC_IOGCSR_fields
                0x000000000800cddc       0x88 build/decoder/STM32F30x_decoder.o
                0x000000000800cddc                TSC_IOGCSR_fields
 .rodata.NVIC_IPR0_fields
                0x000000000800ce64       0x28 build/decoder/STM32F30x_decoder.o
                0x000000000800ce64                NVIC_IPR0_fields
 .rodata.NVIC_IPR8_fields
                0x000000000800ce8c       0x28 build/decoder/STM32F30x_decoder.o
                0x000000000800ce8c                NVIC_IPR8_fields
 .rodata.RTC_WUTR_fields
                0x000000000800ceb4       0x10 build/decoder/STM32F30x_decoder.o
                0x000000000800ceb4                RTC_WUTR_fields
 .rodata.GPIOB_OSPEEDR_fields
                0x000000000800cec4       0x88 build/decoder/STM32F30x_decoder.o
                0x000000000800cec4                GPIOB_OSPEEDR_fields
 .rodata.ADC1_ISR_fields
                0x000000000800cf4c       0x60 build/decoder/STM32F30x_decoder.o
                0x000000000800cf4c                ADC1_ISR_fields
 .rodata.NVIC_ICER1_fields
                0x000000000800cfac       0x10 build/decoder/STM32F30x_decoder.o
                0x000000000800cfac                NVIC_ICER1_fields
 .rodata.RTC_BKP7R_fields
                0x000000000800cfbc       0x10 build/decoder/STM32F30x_decoder.o
                0x000000000800cfbc                RTC_BKP7R_fields
 .rodata.CAN_RF0R_fields
                0x000000000800cfcc       0x28 build/decoder/STM32F30x_decoder.o
                0x000000000800cfcc                CAN_RF0R_fields
 .rodata.CAN_FS1R_fields
                0x000000000800cff4       0xe8 build/decoder/STM32F30x_decoder.o
                0x000000000800cff4                CAN_FS1R_fields
 .rodata.GPIOA_AFRL_fields
                0x000000000800d0dc       0x48 build/decoder/STM32F30x_decoder.o
                0x000000000800d0dc                GPIOA_AFRL_fields
 .rodata.DMA1_CMAR3_fields
                0x000000000800d124       0x10 build/decoder/STM32F30x_decoder.o
                0x000000000800d124                DMA1_CMAR3_fields
 .rodata.ADC1_SQR1_fields
                0x000000000800d134       0x30 build/decoder/STM32F30x_decoder.o
                0x000000000800d134                ADC1_SQR1_fields
 .rodata.CAN_F15R2_fields
                0x000000000800d164      0x108 build/decoder/STM32F30x_decoder.o
                0x000000000800d164                CAN_F15R2_fields
 .rodata.IWDG_PR_fields
                0x000000000800d26c       0x10 build/decoder/STM32F30x_decoder.o
                0x000000000800d26c                IWDG_PR_fields
 .rodata.TIM2_DMAR_fields
                0x000000000800d27c       0x10 build/decoder/STM32F30x_decoder.o
                0x000000000800d27c                TIM2_DMAR_fields
 .rodata.I2C1_TIMEOUTR_fields
                0x000000000800d28c       0x30 build/decoder/STM32F30x_decoder.o
                0x000000000800d28c                I2C1_TIMEOUTR_fields
 .rodata.GPIOB_LCKR_fields
                0x000000000800d2bc       0x90 build/decoder/STM32F30x_decoder.o
                0x000000000800d2bc                GPIOB_LCKR_fields
 .rodata.DAC_DHR8R1_fields
                0x000000000800d34c       0x10 build/decoder/STM32F30x_decoder.o
                0x000000000800d34c                DAC_DHR8R1_fields
 .rodata.TIM1_CCMR1_Output_fields
                0x000000000800d35c       0x68 build/decoder/STM32F30x_decoder.o
                0x000000000800d35c                TIM1_CCMR1_Output_fields
 .rodata.TIM1_CCR2_fields
                0x000000000800d3c4       0x10 build/decoder/STM32F30x_decoder.o
                0x000000000800d3c4                TIM1_CCR2_fields
 .rodata.TIM1_OR_fields
                0x000000000800d3d4       0x18 build/decoder/STM32F30x_decoder.o
                0x000000000800d3d4                TIM1_OR_fields
 .rodata.USART1_TDR_fields
                0x000000000800d3ec       0x10 build/decoder/STM32F30x_decoder.o
                0x000000000800d3ec                USART1_TDR_fields
 .rodata.NVIC_STIR_fields
                0x000000000800d3fc       0x10 build/decoder/STM32F30x_decoder.o
                0x000000000800d3fc                NVIC_STIR_fields
 .rodata.USB_FS_USB_EP7R_fields
                0x000000000800d40c       0x58 build/decoder/STM32F30x_decoder.o
                0x000000000800d40c                USB_FS_USB_EP7R_fields
 .rodata.ADC1_SQR4_fields
                0x000000000800d464       0x18 build/decoder/STM32F30x_decoder.o
                0x000000000800d464                ADC1_SQR4_fields
 .rodata.SYSCFG_registers
                0x000000000800d47c       0x60 build/decoder/STM32F30x_decoder.o
                0x000000000800d47c                SYSCFG_registers
 .rodata.PWR_CSR_fields
                0x000000000800d4dc       0x30 build/decoder/STM32F30x_decoder.o
                0x000000000800d4dc                PWR_CSR_fields
 .rodata.GPIOB_AFRH_fields
                0x000000000800d50c       0x48 build/decoder/STM32F30x_decoder.o
                0x000000000800d50c                GPIOB_AFRH_fields
 .rodata.FPU_FPCCR_fields
                0x000000000800d554       0x50 build/decoder/STM32F30x_decoder.o
                0x000000000800d554                FPU_FPCCR_fields
 .rodata.DBGMCU_APB2FZ_fields
                0x000000000800d5a4       0x28 build/decoder/STM32F30x_decoder.o
                0x000000000800d5a4                DBGMCU_APB2FZ_fields
 .rodata.TIM8_CCR1_fields
                0x000000000800d5cc       0x10 build/decoder/STM32F30x_decoder.o
                0x000000000800d5cc                TIM8_CCR1_fields
 .rodata.WWDG_SR_fields
                0x000000000800d5dc       0x10 build/decoder/STM32F30x_decoder.o
                0x000000000800d5dc                WWDG_SR_fields
 .rodata.TIM16_DIER_fields
                0x000000000800d5ec       0x50 build/decoder/STM32F30x_decoder.o
                0x000000000800d5ec                TIM16_DIER_fields
 .rodata.TIM1_CCR5_fields
                0x000000000800d63c       0x28 build/decoder/STM32F30x_decoder.o
                0x000000000800d63c                TIM1_CCR5_fields
 .rodata.TIM8_BDTR_fields
                0x000000000800d664       0x68 build/decoder/STM32F30x_decoder.o
                0x000000000800d664                TIM8_BDTR_fields
 .rodata.Flash_CR_fields
                0x000000000800d6cc       0x60 build/decoder/STM32F30x_decoder.o
                0x000000000800d6cc                Flash_CR_fields
 .rodata.RTC_BKP26R_fields
                0x000000000800d72c       0x10 build/decoder/STM32F30x_decoder.o
                0x000000000800d72c                RTC_BKP26R_fields
 .rodata.Flash_OBR_fields
                0x000000000800d73c       0x60 build/decoder/STM32F30x_decoder.o
                0x000000000800d73c                Flash_OBR_fields
 .rodata.ADC1_AWD2CR_fields
                0x000000000800d79c       0x10 build/decoder/STM32F30x_decoder.o
                0x000000000800d79c                ADC1_AWD2CR_fields
 .rodata.FPU_registers
                0x000000000800d7ac       0x54 build/decoder/STM32F30x_decoder.o
                0x000000000800d7ac                FPU_registers
 .rodata.DAC_CR_fields
                0x000000000800d800       0x88 build/decoder/STM32F30x_decoder.o
                0x000000000800d800                DAC_CR_fields
 .rodata.NVIC_IPR10_fields
                0x000000000800d888       0x28 build/decoder/STM32F30x_decoder.o
                0x000000000800d888                NVIC_IPR10_fields
 .rodata.TIM15_CCR1_fields
                0x000000000800d8b0       0x10 build/decoder/STM32F30x_decoder.o
                0x000000000800d8b0                TIM15_CCR1_fields
 .rodata.RTC_ALRMAR_fields
                0x000000000800d8c0       0x78 build/decoder/STM32F30x_decoder.o
                0x000000000800d8c0                RTC_ALRMAR_fields
 .rodata.GPIOA_BSRR_fields
                0x000000000800d938      0x108 build/decoder/STM32F30x_decoder.o
                0x000000000800d938                GPIOA_BSRR_fields
 .rodata.TIM16_SR_fields
                0x000000000800da40       0x38 build/decoder/STM32F30x_decoder.o
                0x000000000800da40                TIM16_SR_fields
 .rodata.CAN_F6R1_fields
                0x000000000800da78      0x108 build/decoder/STM32F30x_decoder.o
                0x000000000800da78                CAN_F6R1_fields
 .rodata.ADC1_OFR1_fields
                0x000000000800db80       0x20 build/decoder/STM32F30x_decoder.o
                0x000000000800db80                ADC1_OFR1_fields
 .rodata.TIM15_CR1_fields
                0x000000000800dba0       0x40 build/decoder/STM32F30x_decoder.o
                0x000000000800dba0                TIM15_CR1_fields
 .rodata.NVIC_IABR2_fields
                0x000000000800dbe0       0x10 build/decoder/STM32F30x_decoder.o
                0x000000000800dbe0                NVIC_IABR2_fields
 .rodata.DMA1_CCR2_fields
                0x000000000800dbf0       0x68 build/decoder/STM32F30x_decoder.o
                0x000000000800dbf0                DMA1_CCR2_fields
 .rodata.NVIC_IPR13_fields
                0x000000000800dc58       0x28 build/decoder/STM32F30x_decoder.o
                0x000000000800dc58                NVIC_IPR13_fields
 .rodata.CAN_F22R2_fields
                0x000000000800dc80      0x108 build/decoder/STM32F30x_decoder.o
                0x000000000800dc80                CAN_F22R2_fields
 .rodata.CAN_F0R2_fields
                0x000000000800dd88      0x108 build/decoder/STM32F30x_decoder.o
                0x000000000800dd88                CAN_F0R2_fields
 .rodata.RTC_BKP0R_fields
                0x000000000800de90       0x10 build/decoder/STM32F30x_decoder.o
                0x000000000800de90                RTC_BKP0R_fields
 .rodata.CAN_F19R1_fields
                0x000000000800dea0      0x108 build/decoder/STM32F30x_decoder.o
                0x000000000800dea0                CAN_F19R1_fields
 .rodata.DMA1_IFCR_fields
                0x000000000800dfa8       0xe8 build/decoder/STM32F30x_decoder.o
                0x000000000800dfa8                DMA1_IFCR_fields
 .rodata.TIM16_CCMR1_Input_fields
                0x000000000800e090       0x20 build/decoder/STM32F30x_decoder.o
                0x000000000800e090                TIM16_CCMR1_Input_fields
 .rodata.TIM2_SMCR_fields
                0x000000000800e0b0       0x50 build/decoder/STM32F30x_decoder.o
                0x000000000800e0b0                TIM2_SMCR_fields
 .rodata.CAN_TDT1R_fields
                0x000000000800e100       0x20 build/decoder/STM32F30x_decoder.o
                0x000000000800e100                CAN_TDT1R_fields
 .rodata.COMP_COMP6_CSR_fields
                0x000000000800e120       0x60 build/decoder/STM32F30x_decoder.o
                0x000000000800e120                COMP_COMP6_CSR_fields
 .rodata.I2C1_CR2_fields
                0x000000000800e180       0x70 build/decoder/STM32F30x_decoder.o
                0x000000000800e180                I2C1_CR2_fields
 .rodata.TIM1_CR1_fields
                0x000000000800e1f0       0x50 build/decoder/STM32F30x_decoder.o
                0x000000000800e1f0                TIM1_CR1_fields
 .rodata.CAN_F26R2_fields
                0x000000000800e240      0x108 build/decoder/STM32F30x_decoder.o
                0x000000000800e240                CAN_F26R2_fields
 .rodata.RTC_BKP10R_fields
                0x000000000800e348       0x10 build/decoder/STM32F30x_decoder.o
                0x000000000800e348                RTC_BKP10R_fields
 .rodata.DMA1_CMAR6_fields
                0x000000000800e358       0x10 build/decoder/STM32F30x_decoder.o
                0x000000000800e358                DMA1_CMAR6_fields
 .rodata.CAN_F23R1_fields
                0x000000000800e368      0x108 build/decoder/STM32F30x_decoder.o
                0x000000000800e368                CAN_F23R1_fields
 .rodata.NVIC_IPR20_fields
                0x000000000800e470       0x28 build/decoder/STM32F30x_decoder.o
                0x000000000800e470                NVIC_IPR20_fields
 .rodata.ADC1_DR_fields
                0x000000000800e498       0x10 build/decoder/STM32F30x_decoder.o
                0x000000000800e498                ADC1_DR_fields
 .rodata.CAN_F16R1_fields
                0x000000000800e4a8      0x108 build/decoder/STM32F30x_decoder.o
                0x000000000800e4a8                CAN_F16R1_fields
 .rodata.TSC_registers
                0x000000000800e5b0       0xd8 build/decoder/STM32F30x_decoder.o
                0x000000000800e5b0                TSC_registers
 .rodata.ADC1_registers
                0x000000000800e688      0x150 build/decoder/STM32F30x_decoder.o
                0x000000000800e688                ADC1_registers
 .rodata.TIM17_CR2_fields
                0x000000000800e7d8       0x30 build/decoder/STM32F30x_decoder.o
                0x000000000800e7d8                TIM17_CR2_fields
 .rodata.PWR_registers
                0x000000000800e808       0x24 build/decoder/STM32F30x_decoder.o
                0x000000000800e808                PWR_registers
 .rodata.TIM8_ARR_fields
                0x000000000800e82c       0x10 build/decoder/STM32F30x_decoder.o
                0x000000000800e82c                TIM8_ARR_fields
 .rodata.EXTI_RTSR1_fields
                0x000000000800e83c       0xd8 build/decoder/STM32F30x_decoder.o
                0x000000000800e83c                EXTI_RTSR1_fields
 .rodata.RCC_APB2ENR_fields
                0x000000000800e914       0x48 build/decoder/STM32F30x_decoder.o
                0x000000000800e914                RCC_APB2ENR_fields
 .rodata.NVIC_IPR3_fields
                0x000000000800e95c       0x28 build/decoder/STM32F30x_decoder.o
                0x000000000800e95c                NVIC_IPR3_fields
 .rodata.I2C1_TIMINGR_fields
                0x000000000800e984       0x30 build/decoder/STM32F30x_decoder.o
                0x000000000800e984                I2C1_TIMINGR_fields
 .rodata.USART1_CR1_fields
                0x000000000800e9b4       0xa8 build/decoder/STM32F30x_decoder.o
                0x000000000800e9b4                USART1_CR1_fields
 .rodata.CAN_F13R1_fields
                0x000000000800ea5c      0x108 build/decoder/STM32F30x_decoder.o
                0x000000000800ea5c                CAN_F13R1_fields
 .rodata.RCC_CSR_fields
                0x000000000800eb64       0x58 build/decoder/STM32F30x_decoder.o
                0x000000000800eb64                RCC_CSR_fields
 .rodata.GPIOB_BSRR_fields
                0x000000000800ebbc      0x108 build/decoder/STM32F30x_decoder.o
                0x000000000800ebbc                GPIOB_BSRR_fields
 .rodata.DES_UID0_fields
                0x000000000800ecc4       0x18 build/decoder/STM32F30x_decoder.o
                0x000000000800ecc4                DES_UID0_fields
 .rodata.NVIC_IABR0_fields
                0x000000000800ecdc       0x10 build/decoder/STM32F30x_decoder.o
                0x000000000800ecdc                NVIC_IABR0_fields
 .rodata.TIM2_EGR_fields
                0x000000000800ecec       0x38 build/decoder/STM32F30x_decoder.o
                0x000000000800ecec                TIM2_EGR_fields
 .rodata.USART1_CR3_fields
                0x000000000800ed24       0xa0 build/decoder/STM32F30x_decoder.o
                0x000000000800ed24                USART1_CR3_fields
 .rodata.TIM2_DIER_fields
                0x000000000800edc4       0x68 build/decoder/STM32F30x_decoder.o
                0x000000000800edc4                TIM2_DIER_fields
 .rodata.CAN_MSR_fields
                0x000000000800ee2c       0x50 build/decoder/STM32F30x_decoder.o
                0x000000000800ee2c                CAN_MSR_fields
 .rodata.DAC_DHR12L1_fields
                0x000000000800ee7c       0x10 build/decoder/STM32F30x_decoder.o
                0x000000000800ee7c                DAC_DHR12L1_fields
 .rodata.FPU_MVFR0_fields
                0x000000000800ee8c       0x48 build/decoder/STM32F30x_decoder.o
                0x000000000800ee8c                FPU_MVFR0_fields
 .rodata.SPI1_CR1_fields
                0x000000000800eed4       0x78 build/decoder/STM32F30x_decoder.o
                0x000000000800eed4                SPI1_CR1_fields
 .rodata.EXTI_registers
                0x000000000800ef4c       0x9c build/decoder/STM32F30x_decoder.o
                0x000000000800ef4c                EXTI_registers
 .rodata.USB_FS_DADDR_fields
                0x000000000800efe8       0x48 build/decoder/STM32F30x_decoder.o
                0x000000000800efe8                USB_FS_DADDR_fields
 .rodata.RTC_BKP8R_fields
                0x000000000800f030       0x10 build/decoder/STM32F30x_decoder.o
                0x000000000800f030                RTC_BKP8R_fields
 .rodata.CAN_F2R1_fields
                0x000000000800f040      0x108 build/decoder/STM32F30x_decoder.o
                0x000000000800f040                CAN_F2R1_fields
 .rodata.TIM8_CCR4_fields
                0x000000000800f148       0x10 build/decoder/STM32F30x_decoder.o
                0x000000000800f148                TIM8_CCR4_fields
 .rodata.USB_FS_USB_EP4R_fields
                0x000000000800f158       0x58 build/decoder/STM32F30x_decoder.o
                0x000000000800f158                USB_FS_USB_EP4R_fields
 .rodata.TIM8_CNT_fields
                0x000000000800f1b0       0x18 build/decoder/STM32F30x_decoder.o
                0x000000000800f1b0                TIM8_CNT_fields
 .rodata.RTC_PRER_fields
                0x000000000800f1c8       0x18 build/decoder/STM32F30x_decoder.o
                0x000000000800f1c8                RTC_PRER_fields
 .rodata.TIM1_SR_fields
                0x000000000800f1e0       0x80 build/decoder/STM32F30x_decoder.o
                0x000000000800f1e0                TIM1_SR_fields
 .rodata.DMA1_CPAR2_fields
                0x000000000800f260       0x10 build/decoder/STM32F30x_decoder.o
                0x000000000800f260                DMA1_CPAR2_fields
 .rodata.NVIC_IPR15_fields
                0x000000000800f270       0x28 build/decoder/STM32F30x_decoder.o
                0x000000000800f270                NVIC_IPR15_fields
 .rodata.TSC_CR_fields
                0x000000000800f298       0x68 build/decoder/STM32F30x_decoder.o
                0x000000000800f298                TSC_CR_fields
 .rodata.SPI1_SR_fields
                0x000000000800f300       0x60 build/decoder/STM32F30x_decoder.o
                0x000000000800f300                SPI1_SR_fields
 .rodata.ADC1_JDR3_fields
                0x000000000800f360       0x10 build/decoder/STM32F30x_decoder.o
                0x000000000800f360                ADC1_JDR3_fields
 .rodata.NVIC_ICTR_fields
                0x000000000800f370       0x10 build/decoder/STM32F30x_decoder.o
                0x000000000800f370                NVIC_ICTR_fields
 .rodata.RTC_BKP30R_fields
                0x000000000800f380       0x10 build/decoder/STM32F30x_decoder.o
                0x000000000800f380                RTC_BKP30R_fields
 .rodata.RTC_BKP23R_fields
                0x000000000800f390       0x10 build/decoder/STM32F30x_decoder.o
                0x000000000800f390                RTC_BKP23R_fields
 .rodata.I2C1_OAR2_fields
                0x000000000800f3a0       0x20 build/decoder/STM32F30x_decoder.o
                0x000000000800f3a0                I2C1_OAR2_fields
 .rodata.DMA1_CNDTR3_fields
                0x000000000800f3c0       0x10 build/decoder/STM32F30x_decoder.o
                0x000000000800f3c0                DMA1_CNDTR3_fields
 .rodata.RTC_registers
                0x000000000800f3d0      0x264 build/decoder/STM32F30x_decoder.o
                0x000000000800f3d0                RTC_registers
 .rodata.CAN_F2R2_fields
                0x000000000800f634      0x108 build/decoder/STM32F30x_decoder.o
                0x000000000800f634                CAN_F2R2_fields
 .rodata.NVIC_ISPR2_fields
                0x000000000800f73c       0x10 build/decoder/STM32F30x_decoder.o
                0x000000000800f73c                NVIC_ISPR2_fields
 .rodata.DMA1_CPAR5_fields
                0x000000000800f74c       0x10 build/decoder/STM32F30x_decoder.o
                0x000000000800f74c                DMA1_CPAR5_fields
 .rodata.TIM2_CCR4_fields
                0x000000000800f75c       0x18 build/decoder/STM32F30x_decoder.o
                0x000000000800f75c                TIM2_CCR4_fields
 .rodata.GPIOB_IDR_fields
                0x000000000800f774       0x88 build/decoder/STM32F30x_decoder.o
                0x000000000800f774                GPIOB_IDR_fields
 .rodata.ADC1_OFR4_fields
                0x000000000800f7fc       0x20 build/decoder/STM32F30x_decoder.o
                0x000000000800f7fc                ADC1_OFR4_fields
 .rodata.CAN_RI1R_fields
                0x000000000800f81c       0x28 build/decoder/STM32F30x_decoder.o
                0x000000000800f81c                CAN_RI1R_fields
 .rodata.CAN_F18R1_fields
                0x000000000800f844      0x108 build/decoder/STM32F30x_decoder.o
                0x000000000800f844                CAN_F18R1_fields
 .rodata.TSC_IOG5CR_fields
                0x000000000800f94c       0x10 build/decoder/STM32F30x_decoder.o
                0x000000000800f94c                TSC_IOG5CR_fields
 .rodata.DAC_DOR2_fields
                0x000000000800f95c       0x10 build/decoder/STM32F30x_decoder.o
                0x000000000800f95c                DAC_DOR2_fields
 .rodata.DMA1_CCR5_fields
                0x000000000800f96c       0x68 build/decoder/STM32F30x_decoder.o
                0x000000000800f96c                DMA1_CCR5_fields
 .rodata.DMA1_CNDTR6_fields
                0x000000000800f9d4       0x10 build/decoder/STM32F30x_decoder.o
                0x000000000800f9d4                DMA1_CNDTR6_fields
 .rodata.EXTI_SWIER2_fields
                0x000000000800f9e4       0x18 build/decoder/STM32F30x_decoder.o
                0x000000000800f9e4                EXTI_SWIER2_fields
 .rodata.CAN_RDH0R_fields
                0x000000000800f9fc       0x28 build/decoder/STM32F30x_decoder.o
                0x000000000800f9fc                CAN_RDH0R_fields
 .rodata.TIM6_PSC_fields
                0x000000000800fa24       0x10 build/decoder/STM32F30x_decoder.o
                0x000000000800fa24                TIM6_PSC_fields
 .rodata.CAN_TSR_fields
                0x000000000800fa34       0xb8 build/decoder/STM32F30x_decoder.o
                0x000000000800fa34                CAN_TSR_fields
 .rodata.CAN_TDL0R_fields
                0x000000000800faec       0x28 build/decoder/STM32F30x_decoder.o
                0x000000000800faec                CAN_TDL0R_fields
 .rodata.CAN_F5R2_fields
                0x000000000800fb14      0x108 build/decoder/STM32F30x_decoder.o
                0x000000000800fb14                CAN_F5R2_fields
 .rodata.TSC_IOG1CR_fields
                0x000000000800fc1c       0x10 build/decoder/STM32F30x_decoder.o
                0x000000000800fc1c                TSC_IOG1CR_fields
 .rodata.CAN_F11R1_fields
                0x000000000800fc2c      0x108 build/decoder/STM32F30x_decoder.o
                0x000000000800fc2c                CAN_F11R1_fields
 .rodata.TIM6_CR2_fields
                0x000000000800fd34       0x10 build/decoder/STM32F30x_decoder.o
                0x000000000800fd34                TIM6_CR2_fields
 .rodata.CAN_F25R1_fields
                0x000000000800fd44      0x108 build/decoder/STM32F30x_decoder.o
                0x000000000800fd44                CAN_F25R1_fields
 .rodata.CAN_RDL0R_fields
                0x000000000800fe4c       0x28 build/decoder/STM32F30x_decoder.o
                0x000000000800fe4c                CAN_RDL0R_fields
 .rodata.USART1_registers
                0x000000000800fe74       0x90 build/decoder/STM32F30x_decoder.o
                0x000000000800fe74                USART1_registers
 .rodata.DAC_SWTRIGR_fields
                0x000000000800ff04       0x18 build/decoder/STM32F30x_decoder.o
                0x000000000800ff04                DAC_SWTRIGR_fields
 .rodata.CAN_F12R2_fields
                0x000000000800ff1c      0x108 build/decoder/STM32F30x_decoder.o
                0x000000000800ff1c                CAN_F12R2_fields
 .rodata.RTC_BKP4R_fields
                0x0000000008010024       0x10 build/decoder/STM32F30x_decoder.o
                0x0000000008010024                RTC_BKP4R_fields
 .rodata.RTC_TAFCR_fields
                0x0000000008010034       0x98 build/decoder/STM32F30x_decoder.o
                0x0000000008010034                RTC_TAFCR_fields
 .rodata.TIM17_ARR_fields
                0x00000000080100cc       0x10 build/decoder/STM32F30x_decoder.o
                0x00000000080100cc                TIM17_ARR_fields
 .rodata.CAN_F16R2_fields
                0x00000000080100dc      0x108 build/decoder/STM32F30x_decoder.o
                0x00000000080100dc                CAN_F16R2_fields
 .rodata.USART1_ICR_fields
                0x00000000080101e4       0x68 build/decoder/STM32F30x_decoder.o
                0x00000000080101e4                USART1_ICR_fields
 .rodata.NVIC_IPR6_fields
                0x000000000801024c       0x28 build/decoder/STM32F30x_decoder.o
                0x000000000801024c                NVIC_IPR6_fields
 .rodata.TIM15_CCMR1_Input_fields
                0x0000000008010274       0x38 build/decoder/STM32F30x_decoder.o
                0x0000000008010274                TIM15_CCMR1_Input_fields
 .rodata.DAC_DHR12R2_fields
                0x00000000080102ac       0x10 build/decoder/STM32F30x_decoder.o
                0x00000000080102ac                DAC_DHR12R2_fields
 .rodata.RCC_AHBENR_fields
                0x00000000080102bc       0x78 build/decoder/STM32F30x_decoder.o
                0x00000000080102bc                RCC_AHBENR_fields
 .rodata.RTC_BKP14R_fields
                0x0000000008010334       0x10 build/decoder/STM32F30x_decoder.o
                0x0000000008010334                RTC_BKP14R_fields
 .rodata.CAN_F20R1_fields
                0x0000000008010344      0x108 build/decoder/STM32F30x_decoder.o
                0x0000000008010344                CAN_F20R1_fields
 .rodata.CAN_F27R2_fields
                0x000000000801044c      0x108 build/decoder/STM32F30x_decoder.o
                0x000000000801044c                CAN_F27R2_fields
 .rodata.TIM6_SR_fields
                0x0000000008010554       0x10 build/decoder/STM32F30x_decoder.o
                0x0000000008010554                TIM6_SR_fields
 .rodata.RCC_CIR_fields
                0x0000000008010564       0x90 build/decoder/STM32F30x_decoder.o
                0x0000000008010564                RCC_CIR_fields
 .rodata.CAN_TDH1R_fields
                0x00000000080105f4       0x28 build/decoder/STM32F30x_decoder.o
                0x00000000080105f4                CAN_TDH1R_fields
 .rodata.NVIC_IPR9_fields
                0x000000000801061c       0x28 build/decoder/STM32F30x_decoder.o
                0x000000000801061c                NVIC_IPR9_fields
 .rodata.TIM8_CCER_fields
                0x0000000008010644       0xa0 build/decoder/STM32F30x_decoder.o
                0x0000000008010644                TIM8_CCER_fields
 .rodata.CAN_FFA1R_fields
                0x00000000080106e4       0xe8 build/decoder/STM32F30x_decoder.o
                0x00000000080106e4                CAN_FFA1R_fields
 .rodata.TIM17_registers
                0x00000000080107cc       0xcc build/decoder/STM32F30x_decoder.o
                0x00000000080107cc                TIM17_registers
 .rodata.TIM15_DMAR_fields
                0x0000000008010898       0x10 build/decoder/STM32F30x_decoder.o
                0x0000000008010898                TIM15_DMAR_fields
 .rodata.DBGMCU_registers
                0x00000000080108a8       0x3c build/decoder/STM32F30x_decoder.o
                0x00000000080108a8                DBGMCU_registers
 .rodata.EXTI_EMR2_fields
                0x00000000080108e4       0x28 build/decoder/STM32F30x_decoder.o
                0x00000000080108e4                EXTI_EMR2_fields
 .rodata.TIM8_SMCR_fields
                0x000000000801090c       0x50 build/decoder/STM32F30x_decoder.o
                0x000000000801090c                TIM8_SMCR_fields
 .rodata.CAN_F10R2_fields
                0x000000000801095c      0x108 build/decoder/STM32F30x_decoder.o
                0x000000000801095c                CAN_F10R2_fields
 .rodata.SPI1_CRCPR_fields
                0x0000000008010a64       0x10 build/decoder/STM32F30x_decoder.o
                0x0000000008010a64                SPI1_CRCPR_fields
 .rodata.TIM16_DCR_fields
                0x0000000008010a74       0x18 build/decoder/STM32F30x_decoder.o
                0x0000000008010a74                TIM16_DCR_fields
 .rodata.ADC1_2_CCR_fields
                0x0000000008010a8c       0x48 build/decoder/STM32F30x_decoder.o
                0x0000000008010a8c                ADC1_2_CCR_fields
 .rodata.TIM15_CCER_fields
                0x0000000008010ad4       0x40 build/decoder/STM32F30x_decoder.o
                0x0000000008010ad4                TIM15_CCER_fields
 .rodata.COMP_COMP1_CSR_fields
                0x0000000008010b14       0x58 build/decoder/STM32F30x_decoder.o
                0x0000000008010b14                COMP_COMP1_CSR_fields
 .rodata.RTC_WPR_fields
                0x0000000008010b6c       0x10 build/decoder/STM32F30x_decoder.o
                0x0000000008010b6c                RTC_WPR_fields
 .rodata.TIM17_CNT_fields
                0x0000000008010b7c       0x18 build/decoder/STM32F30x_decoder.o
                0x0000000008010b7c                TIM17_CNT_fields
 .rodata.GPIOA_BRR_fields
                0x0000000008010b94       0x88 build/decoder/STM32F30x_decoder.o
                0x0000000008010b94                GPIOA_BRR_fields
 .rodata.RTC_BKP17R_fields
                0x0000000008010c1c       0x10 build/decoder/STM32F30x_decoder.o
                0x0000000008010c1c                RTC_BKP17R_fields
 .rodata.CAN_F7R1_fields
                0x0000000008010c2c      0x108 build/decoder/STM32F30x_decoder.o
                0x0000000008010c2c                CAN_F7R1_fields
 .rodata.GPIOB_MODER_fields
                0x0000000008010d34       0x88 build/decoder/STM32F30x_decoder.o
                0x0000000008010d34                GPIOB_MODER_fields
 .rodata.OPAMP_OPAMP4_CR_fields
                0x0000000008010dbc       0x88 build/decoder/STM32F30x_decoder.o
                0x0000000008010dbc                OPAMP_OPAMP4_CR_fields
 .rodata.GPIOA_IDR_fields
                0x0000000008010e44       0x88 build/decoder/STM32F30x_decoder.o
                0x0000000008010e44                GPIOA_IDR_fields
 .rodata.CAN_F8R2_fields
                0x0000000008010ecc      0x108 build/decoder/STM32F30x_decoder.o
                0x0000000008010ecc                CAN_F8R2_fields
 .rodata.TIM15_SMCR_fields
                0x0000000008010fd4       0x28 build/decoder/STM32F30x_decoder.o
                0x0000000008010fd4                TIM15_SMCR_fields
 .rodata.I2C1_ISR_fields
                0x0000000008010ffc       0x90 build/decoder/STM32F30x_decoder.o
                0x0000000008010ffc                I2C1_ISR_fields
 .rodata.CAN_F1R2_fields
                0x000000000801108c      0x108 build/decoder/STM32F30x_decoder.o
                0x000000000801108c                CAN_F1R2_fields
 .rodata.TIM8_registers
                0x0000000008011194      0x144 build/decoder/STM32F30x_decoder.o
                0x0000000008011194                TIM8_registers
 .rodata.EXTI_FTSR1_fields
                0x00000000080112d8       0xd8 build/decoder/STM32F30x_decoder.o
                0x00000000080112d8                EXTI_FTSR1_fields
 .rodata.IWDG_RLR_fields
                0x00000000080113b0       0x10 build/decoder/STM32F30x_decoder.o
                0x00000000080113b0                IWDG_RLR_fields
 .rodata.RTC_TSTR_fields
                0x00000000080113c0       0x40 build/decoder/STM32F30x_decoder.o
                0x00000000080113c0                RTC_TSTR_fields
 .rodata.TIM15_SR_fields
                0x0000000008011400       0x48 build/decoder/STM32F30x_decoder.o
                0x0000000008011400                TIM15_SR_fields
 .rodata.NVIC_ISER1_fields
                0x0000000008011448       0x10 build/decoder/STM32F30x_decoder.o
                0x0000000008011448                NVIC_ISER1_fields
 .rodata.DES_UID1_fields
                0x0000000008011458       0x18 build/decoder/STM32F30x_decoder.o
                0x0000000008011458                DES_UID1_fields
 .rodata.CAN_F21R1_fields
                0x0000000008011470      0x108 build/decoder/STM32F30x_decoder.o
                0x0000000008011470                CAN_F21R1_fields
 .rodata.DBGMCU_IDCODE_fields
                0x0000000008011578       0x18 build/decoder/STM32F30x_decoder.o
                0x0000000008011578                DBGMCU_IDCODE_fields
 .rodata.RTC_BKP20R_fields
                0x0000000008011590       0x10 build/decoder/STM32F30x_decoder.o
                0x0000000008011590                RTC_BKP20R_fields
 .rodata.CAN_TDL1R_fields
                0x00000000080115a0       0x28 build/decoder/STM32F30x_decoder.o
                0x00000000080115a0                CAN_TDL1R_fields
 .rodata.CRC_DR_fields
                0x00000000080115c8       0x10 build/decoder/STM32F30x_decoder.o
                0x00000000080115c8                CRC_DR_fields
 .rodata.DMA1_CMAR1_fields
                0x00000000080115d8       0x10 build/decoder/STM32F30x_decoder.o
                0x00000000080115d8                DMA1_CMAR1_fields
 .rodata.TIM15_EGR_fields
                0x00000000080115e8       0x38 build/decoder/STM32F30x_decoder.o
                0x00000000080115e8                TIM15_EGR_fields
 .rodata.NVIC_IPR19_fields
                0x0000000008011620       0x28 build/decoder/STM32F30x_decoder.o
                0x0000000008011620                NVIC_IPR19_fields
 .rodata.ADC1_SQR2_fields
                0x0000000008011648       0x30 build/decoder/STM32F30x_decoder.o
                0x0000000008011648                ADC1_SQR2_fields
 .rodata.NVIC_ICPR0_fields
                0x0000000008011678       0x10 build/decoder/STM32F30x_decoder.o
                0x0000000008011678                NVIC_ICPR0_fields
 .rodata.TIM16_CCMR1_Output_fields
                0x0000000008011688       0x30 build/decoder/STM32F30x_decoder.o
                0x0000000008011688                TIM16_CCMR1_Output_fields
 .rodata.GPIOA_ODR_fields
                0x00000000080116b8       0x88 build/decoder/STM32F30x_decoder.o
                0x00000000080116b8                GPIOA_ODR_fields
 .rodata.GPIOA_MODER_fields
                0x0000000008011740       0x88 build/decoder/STM32F30x_decoder.o
                0x0000000008011740                GPIOA_MODER_fields
 .rodata.GPIOB_OTYPER_fields
                0x00000000080117c8       0x88 build/decoder/STM32F30x_decoder.o
                0x00000000080117c8                GPIOB_OTYPER_fields
 .rodata.DBGMCU_CR_fields
                0x0000000008011850       0x30 build/decoder/STM32F30x_decoder.o
                0x0000000008011850                DBGMCU_CR_fields
 .rodata.TSC_IER_fields
                0x0000000008011880       0x18 build/decoder/STM32F30x_decoder.o
                0x0000000008011880                TSC_IER_fields
 .rodata.TIM1_EGR_fields
                0x0000000008011898       0x50 build/decoder/STM32F30x_decoder.o
                0x0000000008011898                TIM1_EGR_fields
 .rodata.USB_FS_USB_CNTR_fields
                0x00000000080118e8       0x70 build/decoder/STM32F30x_decoder.o
                0x00000000080118e8                USB_FS_USB_CNTR_fields
 .rodata.TIM8_DMAR_fields
                0x0000000008011958       0x10 build/decoder/STM32F30x_decoder.o
                0x0000000008011958                TIM8_DMAR_fields
 .rodata.RTC_ALRMBR_fields
                0x0000000008011968       0x78 build/decoder/STM32F30x_decoder.o
                0x0000000008011968                RTC_ALRMBR_fields
 .rodata.GPIOA_OTYPER_fields
                0x00000000080119e0       0x88 build/decoder/STM32F30x_decoder.o
                0x00000000080119e0                GPIOA_OTYPER_fields
 .rodata.ADC1_TR1_fields
                0x0000000008011a68       0x18 build/decoder/STM32F30x_decoder.o
                0x0000000008011a68                ADC1_TR1_fields
 .rodata.CAN_FM1R_fields
                0x0000000008011a80       0xe8 build/decoder/STM32F30x_decoder.o
                0x0000000008011a80                CAN_FM1R_fields
 .rodata.ADC1_SMPR1_fields
                0x0000000008011b68       0x50 build/decoder/STM32F30x_decoder.o
                0x0000000008011b68                ADC1_SMPR1_fields
 .rodata.COMP_registers
                0x0000000008011bb8       0x60 build/decoder/STM32F30x_decoder.o
                0x0000000008011bb8                COMP_registers
 .rodata.TSC_ISR_fields
                0x0000000008011c18       0x18 build/decoder/STM32F30x_decoder.o
                0x0000000008011c18                TSC_ISR_fields
 .rodata.TIM1_RCR_fields
                0x0000000008011c30       0x10 build/decoder/STM32F30x_decoder.o
                0x0000000008011c30                TIM1_RCR_fields
 .rodata.COMP_COMP7_CSR_fields
                0x0000000008011c40       0x58 build/decoder/STM32F30x_decoder.o
                0x0000000008011c40                COMP_COMP7_CSR_fields
 .rodata.CRC_CR_fields
                0x0000000008011c98       0x28 build/decoder/STM32F30x_decoder.o
                0x0000000008011c98                CRC_CR_fields
 .rodata.TSC_IOCCR_fields
                0x0000000008011cc0      0x108 build/decoder/STM32F30x_decoder.o
                0x0000000008011cc0                TSC_IOCCR_fields
 .rodata.NVIC_ICER2_fields
                0x0000000008011dc8       0x10 build/decoder/STM32F30x_decoder.o
                0x0000000008011dc8                NVIC_ICER2_fields
 .rodata.TIM17_CCR1_fields
                0x0000000008011dd8       0x10 build/decoder/STM32F30x_decoder.o
                0x0000000008011dd8                TIM17_CCR1_fields
 .rodata.I2C1_TXDR_fields
                0x0000000008011de8       0x10 build/decoder/STM32F30x_decoder.o
                0x0000000008011de8                I2C1_TXDR_fields
 .rodata.WWDG_registers
                0x0000000008011df8       0x30 build/decoder/STM32F30x_decoder.o
                0x0000000008011df8                WWDG_registers
 .rodata.EXTI_PR2_fields
                0x0000000008011e28       0x18 build/decoder/STM32F30x_decoder.o
                0x0000000008011e28                EXTI_PR2_fields
 .rodata.CAN_TDT2R_fields
                0x0000000008011e40       0x20 build/decoder/STM32F30x_decoder.o
                0x0000000008011e40                CAN_TDT2R_fields
 .rodata.TIM15_RCR_fields
                0x0000000008011e60       0x10 build/decoder/STM32F30x_decoder.o
                0x0000000008011e60                TIM15_RCR_fields
 .rodata.COMP_COMP4_CSR_fields
                0x0000000008011e70       0x60 build/decoder/STM32F30x_decoder.o
                0x0000000008011e70                COMP_COMP4_CSR_fields
 .rodata.TIM2_CCMR2_Input_fields
                0x0000000008011ed0       0x38 build/decoder/STM32F30x_decoder.o
                0x0000000008011ed0                TIM2_CCMR2_Input_fields
 .rodata.EXTI_RTSR2_fields
                0x0000000008011f08       0x18 build/decoder/STM32F30x_decoder.o
                0x0000000008011f08                EXTI_RTSR2_fields
 .rodata.RTC_BKP11R_fields
                0x0000000008011f20       0x10 build/decoder/STM32F30x_decoder.o
                0x0000000008011f20                RTC_BKP11R_fields
 .rodata.FPU_CPACR_fields
                0x0000000008011f30       0x58 build/decoder/STM32F30x_decoder.o
                0x0000000008011f30                FPU_CPACR_fields
 .rodata.CAN_F3R2_fields
                0x0000000008011f88      0x108 build/decoder/STM32F30x_decoder.o
                0x0000000008011f88                CAN_F3R2_fields
 .rodata.CAN_F3R1_fields
                0x0000000008012090      0x108 build/decoder/STM32F30x_decoder.o
                0x0000000008012090                CAN_F3R1_fields
 .rodata.FPU_FPDSCR_fields
                0x0000000008012198       0x28 build/decoder/STM32F30x_decoder.o
                0x0000000008012198                FPU_FPDSCR_fields
 .rodata.DAC_DHR8R2_fields
                0x00000000080121c0       0x10 build/decoder/STM32F30x_decoder.o
                0x00000000080121c0                DAC_DHR8R2_fields
 .rodata.RTC_BKP1R_fields
                0x00000000080121d0       0x10 build/decoder/STM32F30x_decoder.o
                0x00000000080121d0                RTC_BKP1R_fields
 .rodata.RTC_BKP18R_fields
                0x00000000080121e0       0x10 build/decoder/STM32F30x_decoder.o
                0x00000000080121e0                RTC_BKP18R_fields
 .rodata.TIM1_CCR3_fields
                0x00000000080121f0       0x10 build/decoder/STM32F30x_decoder.o
                0x00000000080121f0                TIM1_CCR3_fields
 .rodata.CAN_TI0R_fields
                0x0000000008012200       0x30 build/decoder/STM32F30x_decoder.o
                0x0000000008012200                CAN_TI0R_fields
 .rodata.CAN_RDT0R_fields
                0x0000000008012230       0x20 build/decoder/STM32F30x_decoder.o
                0x0000000008012230                CAN_RDT0R_fields
 .rodata.RTC_TSSSR_fields
                0x0000000008012250       0x10 build/decoder/STM32F30x_decoder.o
                0x0000000008012250                RTC_TSSSR_fields
 .rodata.CRC_registers
                0x0000000008012260       0x48 build/decoder/STM32F30x_decoder.o
                0x0000000008012260                CRC_registers
 .rodata.TIM16_CR1_fields
                0x00000000080122a8       0x40 build/decoder/STM32F30x_decoder.o
                0x00000000080122a8                TIM16_CR1_fields
 .rodata.CAN_F14R1_fields
                0x00000000080122e8      0x108 build/decoder/STM32F30x_decoder.o
                0x00000000080122e8                CAN_F14R1_fields
 .rodata.TIM2_DCR_fields
                0x00000000080123f0       0x18 build/decoder/STM32F30x_decoder.o
                0x00000000080123f0                TIM2_DCR_fields
 .rodata.CAN_TDL2R_fields
                0x0000000008012408       0x28 build/decoder/STM32F30x_decoder.o
                0x0000000008012408                CAN_TDL2R_fields
 .rodata.I2C1_CR1_fields
                0x0000000008012430       0xb0 build/decoder/STM32F30x_decoder.o
                0x0000000008012430                I2C1_CR1_fields
 .rodata.TIM8_CCR2_fields
                0x00000000080124e0       0x10 build/decoder/STM32F30x_decoder.o
                0x00000000080124e0                TIM8_CCR2_fields
 .rodata.TSC_IOG2CR_fields
                0x00000000080124f0       0x10 build/decoder/STM32F30x_decoder.o
                0x00000000080124f0                TSC_IOG2CR_fields
 .rodata.CAN_F23R2_fields
                0x0000000008012500      0x108 build/decoder/STM32F30x_decoder.o
                0x0000000008012500                CAN_F23R2_fields
 .rodata.TIM1_CCR6_fields
                0x0000000008012608       0x10 build/decoder/STM32F30x_decoder.o
                0x0000000008012608                TIM1_CCR6_fields
 .rodata.FPU_MVFR1_fields
                0x0000000008012618       0x28 build/decoder/STM32F30x_decoder.o
                0x0000000008012618                FPU_MVFR1_fields
 .rodata.SPI1_CR2_fields
                0x0000000008012640       0x68 build/decoder/STM32F30x_decoder.o
                0x0000000008012640                SPI1_CR2_fields
 .rodata.TIM2_CR1_fields
                0x00000000080126a8       0x50 build/decoder/STM32F30x_decoder.o
                0x00000000080126a8                TIM2_CR1_fields
 .rodata.CAN_ESR_fields
                0x00000000080126f8       0x38 build/decoder/STM32F30x_decoder.o
                0x00000000080126f8                CAN_ESR_fields
 .rodata.TIM2_CCER_fields
                0x0000000008012730       0x68 build/decoder/STM32F30x_decoder.o
                0x0000000008012730                TIM2_CCER_fields
 .rodata.TSC_IOG6CR_fields
                0x0000000008012798       0x10 build/decoder/STM32F30x_decoder.o
                0x0000000008012798                TSC_IOG6CR_fields
 .rodata.GPIOB_AFRL_fields
                0x00000000080127a8       0x48 build/decoder/STM32F30x_decoder.o
                0x00000000080127a8                GPIOB_AFRL_fields
 .rodata.RTC_TR_fields
                0x00000000080127f0       0x40 build/decoder/STM32F30x_decoder.o
                0x00000000080127f0                RTC_TR_fields
 .rodata.CAN_F17R1_fields
                0x0000000008012830      0x108 build/decoder/STM32F30x_decoder.o
                0x0000000008012830                CAN_F17R1_fields
 .rodata.SPI1_I2SCFGR_fields
                0x0000000008012938       0x48 build/decoder/STM32F30x_decoder.o
                0x0000000008012938                SPI1_I2SCFGR_fields
 .rodata.SPI1_TXCRCR_fields
                0x0000000008012980       0x10 build/decoder/STM32F30x_decoder.o
                0x0000000008012980                SPI1_TXCRCR_fields
 .rodata.NVIC_IPR11_fields
                0x0000000008012990       0x28 build/decoder/STM32F30x_decoder.o
                0x0000000008012990                NVIC_IPR11_fields
 .rodata.TIM15_CCR2_fields
                0x00000000080129b8       0x10 build/decoder/STM32F30x_decoder.o
                0x00000000080129b8                TIM15_CCR2_fields
 .rodata.DMA1_CPAR6_fields
                0x00000000080129c8       0x10 build/decoder/STM32F30x_decoder.o
                0x00000000080129c8                DMA1_CPAR6_fields
 .rodata.SYSCFG_EXTICR3_fields
                0x00000000080129d8       0x28 build/decoder/STM32F30x_decoder.o
                0x00000000080129d8                SYSCFG_EXTICR3_fields
 .rodata.OPAMP_OPAMP3_CR_fields
                0x0000000008012a00       0x88 build/decoder/STM32F30x_decoder.o
                0x0000000008012a00                OPAMP_OPAMP3_CR_fields
 .rodata.TIM2_CCR2_fields
                0x0000000008012a88       0x18 build/decoder/STM32F30x_decoder.o
                0x0000000008012a88                TIM2_CCR2_fields
 .rodata.CAN_F6R2_fields
                0x0000000008012aa0      0x108 build/decoder/STM32F30x_decoder.o
                0x0000000008012aa0                CAN_F6R2_fields
 .rodata.TIM17_CCMR1_Input_fields
                0x0000000008012ba8       0x20 build/decoder/STM32F30x_decoder.o
                0x0000000008012ba8                TIM17_CCMR1_Input_fields
 .rodata.TIM8_CCMR2_Output_fields
                0x0000000008012bc8       0x68 build/decoder/STM32F30x_decoder.o
                0x0000000008012bc8                TIM8_CCMR2_Output_fields
 .rodata.CRC_POL_fields
                0x0000000008012c30       0x10 build/decoder/STM32F30x_decoder.o
                0x0000000008012c30                CRC_POL_fields
 .rodata.Flash_WRPR_fields
                0x0000000008012c40       0x10 build/decoder/STM32F30x_decoder.o
                0x0000000008012c40                Flash_WRPR_fields
 .rodata.USB_FS_USB_EP5R_fields
                0x0000000008012c50       0x58 build/decoder/STM32F30x_decoder.o
                0x0000000008012c50                USB_FS_USB_EP5R_fields
 .rodata.DMA1_CCR3_fields
                0x0000000008012ca8       0x68 build/decoder/STM32F30x_decoder.o
                0x0000000008012ca8                DMA1_CCR3_fields
 .rodata.NVIC_IPR14_fields
                0x0000000008012d10       0x28 build/decoder/STM32F30x_decoder.o
                0x0000000008012d10                NVIC_IPR14_fields
 .rodata.ADC1_TR3_fields
                0x0000000008012d38       0x18 build/decoder/STM32F30x_decoder.o
                0x0000000008012d38                ADC1_TR3_fields
 .rodata.USB_FS_FNR_fields
                0x0000000008012d50       0x30 build/decoder/STM32F30x_decoder.o
                0x0000000008012d50                USB_FS_FNR_fields
 .rodata.FPU_FPCAR_fields
                0x0000000008012d80       0x10 build/decoder/STM32F30x_decoder.o
                0x0000000008012d80                FPU_FPCAR_fields
 .rodata.TIM17_DIER_fields
                0x0000000008012d90       0x50 build/decoder/STM32F30x_decoder.o
                0x0000000008012d90                TIM17_DIER_fields
 .rodata.RCC_registers
                0x0000000008012de0       0xa8 build/decoder/STM32F30x_decoder.o
                0x0000000008012de0                RCC_registers
 .rodata.TIM2_CCMR1_Input_fields
                0x0000000008012e88       0x38 build/decoder/STM32F30x_decoder.o
                0x0000000008012e88                TIM2_CCMR1_Input_fields
 .rodata.USB_FS_USB_EP1R_fields
                0x0000000008012ec0       0x58 build/decoder/STM32F30x_decoder.o
                0x0000000008012ec0                USB_FS_USB_EP1R_fields
 .rodata.Flash_AR_fields
                0x0000000008012f18       0x10 build/decoder/STM32F30x_decoder.o
                0x0000000008012f18                Flash_AR_fields
 .rodata.RTC_DR_fields
                0x0000000008012f28       0x40 build/decoder/STM32F30x_decoder.o
                0x0000000008012f28                RTC_DR_fields
 .rodata.TIM1_CR2_fields
                0x0000000008012f68       0x80 build/decoder/STM32F30x_decoder.o
                0x0000000008012f68                TIM1_CR2_fields
 .rodata.SYSCFG_CFGR1_fields
                0x0000000008012fe8       0x90 build/decoder/STM32F30x_decoder.o
                0x0000000008012fe8                SYSCFG_CFGR1_fields
 .rodata.DMA1_CMAR7_fields
                0x0000000008013078       0x10 build/decoder/STM32F30x_decoder.o
                0x0000000008013078                DMA1_CMAR7_fields
 .rodata.TIM2_CCR1_fields
                0x0000000008013088       0x18 build/decoder/STM32F30x_decoder.o
                0x0000000008013088                TIM2_CCR1_fields
 .rodata.RCC_BDCR_fields
                0x00000000080130a0       0x40 build/decoder/STM32F30x_decoder.o
                0x00000000080130a0                RCC_BDCR_fields
 .rodata.SPI1_RXCRCR_fields
                0x00000000080130e0       0x10 build/decoder/STM32F30x_decoder.o
                0x00000000080130e0                SPI1_RXCRCR_fields
 .rodata.TIM1_CCMR2_Input_fields
                0x00000000080130f0       0x38 build/decoder/STM32F30x_decoder.o
                0x00000000080130f0                TIM1_CCMR2_Input_fields
 .rodata.GPIOA_LCKR_fields
                0x0000000008013128       0x90 build/decoder/STM32F30x_decoder.o
                0x0000000008013128                GPIOA_LCKR_fields
 .rodata.TIM16_CCR1_fields
                0x00000000080131b8       0x10 build/decoder/STM32F30x_decoder.o
                0x00000000080131b8                TIM16_CCR1_fields
 .rodata.ADC1_OFR2_fields
                0x00000000080131c8       0x20 build/decoder/STM32F30x_decoder.o
                0x00000000080131c8                ADC1_OFR2_fields
 .rodata.TIM8_DCR_fields
                0x00000000080131e8       0x18 build/decoder/STM32F30x_decoder.o
                0x00000000080131e8                TIM8_DCR_fields
 .rodata.TIM16_BDTR_fields
                0x0000000008013200       0x50 build/decoder/STM32F30x_decoder.o
                0x0000000008013200                TIM16_BDTR_fields
 .rodata.NVIC_IPR4_fields
                0x0000000008013250       0x28 build/decoder/STM32F30x_decoder.o
                0x0000000008013250                NVIC_IPR4_fields
 .rodata.USART1_CR2_fields
                0x0000000008013278       0xa0 build/decoder/STM32F30x_decoder.o
                0x0000000008013278                USART1_CR2_fields
 .rodata.NVIC_IPR17_fields
                0x0000000008013318       0x28 build/decoder/STM32F30x_decoder.o
                0x0000000008013318                NVIC_IPR17_fields
 .rodata.TIM16_CNT_fields
                0x0000000008013340       0x18 build/decoder/STM32F30x_decoder.o
                0x0000000008013340                TIM16_CNT_fields
 .rodata.CAN_RDH1R_fields
                0x0000000008013358       0x28 build/decoder/STM32F30x_decoder.o
                0x0000000008013358                CAN_RDH1R_fields
 .rodata.NVIC_registers
                0x0000000008013380      0x1d4 build/decoder/STM32F30x_decoder.o
                0x0000000008013380                NVIC_registers
 .rodata.TIM8_PSC_fields
                0x0000000008013554       0x10 build/decoder/STM32F30x_decoder.o
                0x0000000008013554                TIM8_PSC_fields
 .rodata.CAN_F10R1_fields
                0x0000000008013564      0x108 build/decoder/STM32F30x_decoder.o
                0x0000000008013564                CAN_F10R1_fields
 .rodata.RTC_BKP2R_fields
                0x000000000801366c       0x10 build/decoder/STM32F30x_decoder.o
                0x000000000801366c                RTC_BKP2R_fields
 .rodata.RCC_APB1ENR_fields
                0x000000000801367c       0x80 build/decoder/STM32F30x_decoder.o
                0x000000000801367c                RCC_APB1ENR_fields
 .rodata.EXTI_IMR2_fields
                0x00000000080136fc       0x28 build/decoder/STM32F30x_decoder.o
                0x00000000080136fc                EXTI_IMR2_fields
 .rodata.GPIOA_AFRH_fields
                0x0000000008013724       0x48 build/decoder/STM32F30x_decoder.o
                0x0000000008013724                GPIOA_AFRH_fields
 .rodata.RCC_APB1RSTR_fields
                0x000000000801376c       0x98 build/decoder/STM32F30x_decoder.o
                0x000000000801376c                RCC_APB1RSTR_fields
 .rodata.TIM1_registers
                0x0000000008013804      0x144 build/decoder/STM32F30x_decoder.o
                0x0000000008013804                TIM1_registers
 .rodata.CAN_RDL1R_fields
                0x0000000008013948       0x28 build/decoder/STM32F30x_decoder.o
                0x0000000008013948                CAN_RDL1R_fields
 .rodata.CAN_RDT1R_fields
                0x0000000008013970       0x20 build/decoder/STM32F30x_decoder.o
                0x0000000008013970                CAN_RDT1R_fields
 .rodata.TIM16_registers
                0x0000000008013990       0xd8 build/decoder/STM32F30x_decoder.o
                0x0000000008013990                TIM16_registers
 .rodata.TIM2_CNT_fields
                0x0000000008013a68       0x20 build/decoder/STM32F30x_decoder.o
                0x0000000008013a68                TIM2_CNT_fields
 .rodata.TIM6_CNT_fields
                0x0000000008013a88       0x18 build/decoder/STM32F30x_decoder.o
                0x0000000008013a88                TIM6_CNT_fields
 .rodata.SPI1_registers
                0x0000000008013aa0       0x78 build/decoder/STM32F30x_decoder.o
                0x0000000008013aa0                SPI1_registers
 .rodata.CAN_registers
                0x0000000008013b18      0x438 build/decoder/STM32F30x_decoder.o
                0x0000000008013b18                CAN_registers
 .rodata.TIM1_CCMR1_Input_fields
                0x0000000008013f50       0x38 build/decoder/STM32F30x_decoder.o
                0x0000000008013f50                TIM1_CCMR1_Input_fields
 .rodata.DAC_DHR12L2_fields
                0x0000000008013f88       0x10 build/decoder/STM32F30x_decoder.o
                0x0000000008013f88                DAC_DHR12L2_fields
 .rodata.TIM2_registers
                0x0000000008013f98       0xfc build/decoder/STM32F30x_decoder.o
                0x0000000008013f98                TIM2_registers
 .rodata.CAN_F8R1_fields
                0x0000000008014094      0x108 build/decoder/STM32F30x_decoder.o
                0x0000000008014094                CAN_F8R1_fields
 .rodata.TIM15_CNT_fields
                0x000000000801419c       0x18 build/decoder/STM32F30x_decoder.o
                0x000000000801419c                TIM15_CNT_fields
 .rodata.TIM6_DIER_fields
                0x00000000080141b4       0x18 build/decoder/STM32F30x_decoder.o
                0x00000000080141b4                TIM6_DIER_fields
 .rodata.RTC_BKP15R_fields
                0x00000000080141cc       0x10 build/decoder/STM32F30x_decoder.o
                0x00000000080141cc                RTC_BKP15R_fields
 .rodata.TIM2_CCMR2_Output_fields
                0x00000000080141dc       0x68 build/decoder/STM32F30x_decoder.o
                0x00000000080141dc                TIM2_CCMR2_Output_fields
 .rodata.ADC1_JDR1_fields
                0x0000000008014244       0x10 build/decoder/STM32F30x_decoder.o
                0x0000000008014244                ADC1_JDR1_fields
 .rodata.TIM8_CCMR3_Output_fields
                0x0000000008014254       0x58 build/decoder/STM32F30x_decoder.o
                0x0000000008014254                TIM8_CCMR3_Output_fields
 .rodata.GPIOB_registers
                0x00000000080142ac       0x90 build/decoder/STM32F30x_decoder.o
                0x00000000080142ac                GPIOB_registers
 .rodata.TIM8_CCR5_fields
                0x000000000801433c       0x28 build/decoder/STM32F30x_decoder.o
                0x000000000801433c                TIM8_CCR5_fields
 .rodata.IWDG_registers
                0x0000000008014364       0x48 build/decoder/STM32F30x_decoder.o
                0x0000000008014364                IWDG_registers
 .rodata.TIM1_BDTR_fields
                0x00000000080143ac       0x68 build/decoder/STM32F30x_decoder.o
                0x00000000080143ac                TIM1_BDTR_fields
 .rodata.RTC_CR_fields
                0x0000000008014414       0xa8 build/decoder/STM32F30x_decoder.o
                0x0000000008014414                RTC_CR_fields
 .rodata.USART1_RQR_fields
                0x00000000080144bc       0x30 build/decoder/STM32F30x_decoder.o
                0x00000000080144bc                USART1_RQR_fields
 .rodata.CAN_TDH2R_fields
                0x00000000080144ec       0x28 build/decoder/STM32F30x_decoder.o
                0x00000000080144ec                CAN_TDH2R_fields
 .rodata.NVIC_ISPR0_fields
                0x0000000008014514       0x10 build/decoder/STM32F30x_decoder.o
                0x0000000008014514                NVIC_ISPR0_fields
 .rodata.DMA1_CPAR3_fields
                0x0000000008014524       0x10 build/decoder/STM32F30x_decoder.o
                0x0000000008014524                DMA1_CPAR3_fields
 .rodata.TSC_IOSCR_fields
                0x0000000008014534      0x108 build/decoder/STM32F30x_decoder.o
                0x0000000008014534                TSC_IOSCR_fields
 .rodata.TIM15_CR2_fields
                0x000000000801463c       0x48 build/decoder/STM32F30x_decoder.o
                0x000000000801463c                TIM15_CR2_fields
 .rodata.DES_registers
                0x0000000008014684       0x60 build/decoder/STM32F30x_decoder.o
                0x0000000008014684                DES_registers
 .rodata.ADC1_JDR4_fields
                0x00000000080146e4       0x10 build/decoder/STM32F30x_decoder.o
                0x00000000080146e4                ADC1_JDR4_fields
 .rodata.Flash_OPTKEYR_fields
                0x00000000080146f4       0x10 build/decoder/STM32F30x_decoder.o
                0x00000000080146f4                Flash_OPTKEYR_fields
 .rodata.CAN_F13R2_fields
                0x0000000008014704      0x108 build/decoder/STM32F30x_decoder.o
                0x0000000008014704                CAN_F13R2_fields
 .rodata.DMA1_CNDTR4_fields
                0x000000000801480c       0x10 build/decoder/STM32F30x_decoder.o
                0x000000000801480c                DMA1_CNDTR4_fields
 .rodata.TIM8_CCMR1_Output_fields
                0x000000000801481c       0x68 build/decoder/STM32F30x_decoder.o
                0x000000000801481c                TIM8_CCMR1_Output_fields
 .rodata.RCC_CR_fields
                0x0000000008014884       0x58 build/decoder/STM32F30x_decoder.o
                0x0000000008014884                RCC_CR_fields
 .rodata.TIM1_DIER_fields
                0x00000000080148dc       0x80 build/decoder/STM32F30x_decoder.o
                0x00000000080148dc                TIM1_DIER_fields
 .rodata.USART1_RDR_fields
                0x000000000801495c       0x10 build/decoder/STM32F30x_decoder.o
                0x000000000801495c                USART1_RDR_fields
 .rodata.TIM16_RCR_fields
                0x000000000801496c       0x10 build/decoder/STM32F30x_decoder.o
                0x000000000801496c                TIM16_RCR_fields
 .rodata.ADC1_2_CDR_fields
                0x000000000801497c       0x18 build/decoder/STM32F30x_decoder.o
                0x000000000801497c                ADC1_2_CDR_fields
 .rodata.I2C1_registers
                0x0000000008014994       0x90 build/decoder/STM32F30x_decoder.o
                0x0000000008014994                I2C1_registers
 .rodata.USB_FS_USB_EP2R_fields
                0x0000000008014a24       0x58 build/decoder/STM32F30x_decoder.o
                0x0000000008014a24                USB_FS_USB_EP2R_fields
 .rodata.DMA1_CMAR2_fields
                0x0000000008014a7c       0x10 build/decoder/STM32F30x_decoder.o
                0x0000000008014a7c                DMA1_CMAR2_fields
 .rodata.WWDG_CFR_fields
                0x0000000008014a8c       0x20 build/decoder/STM32F30x_decoder.o
                0x0000000008014a8c                WWDG_CFR_fields
 .rodata.TIM15_ARR_fields
                0x0000000008014aac       0x10 build/decoder/STM32F30x_decoder.o
                0x0000000008014aac                TIM15_ARR_fields
 .rodata.DAC_SR_fields
                0x0000000008014abc       0x18 build/decoder/STM32F30x_decoder.o
                0x0000000008014abc                DAC_SR_fields
 .rodata.DMA1_CCR6_fields
                0x0000000008014ad4       0x68 build/decoder/STM32F30x_decoder.o
                0x0000000008014ad4                DMA1_CCR6_fields
 .rodata.RCC_CFGR3_fields
                0x0000000008014b3c       0x50 build/decoder/STM32F30x_decoder.o
                0x0000000008014b3c                RCC_CFGR3_fields
 .rodata.TIM6_EGR_fields
                0x0000000008014b8c       0x10 build/decoder/STM32F30x_decoder.o
                0x0000000008014b8c                TIM6_EGR_fields
 .rodata.OPAMP_OPAMP2_CR_fields
                0x0000000008014b9c       0x88 build/decoder/STM32F30x_decoder.o
                0x0000000008014b9c                OPAMP_OPAMP2_CR_fields
 .rodata.NVIC_ISER2_fields
                0x0000000008014c24       0x10 build/decoder/STM32F30x_decoder.o
                0x0000000008014c24                NVIC_ISER2_fields
 .rodata.SYSCFG_RCR_fields
                0x0000000008014c34       0x48 build/decoder/STM32F30x_decoder.o
                0x0000000008014c34                SYSCFG_RCR_fields
 .rodata.DAC_DHR12RD_fields
                0x0000000008014c7c       0x18 build/decoder/STM32F30x_decoder.o
                0x0000000008014c7c                DAC_DHR12RD_fields
 .rodata.TIM8_DIER_fields
                0x0000000008014c94       0x80 build/decoder/STM32F30x_decoder.o
                0x0000000008014c94                TIM8_DIER_fields
 .rodata.CAN_IER_fields
                0x0000000008014d14       0x78 build/decoder/STM32F30x_decoder.o
                0x0000000008014d14                CAN_IER_fields
 .rodata.TIM6_registers
                0x0000000008014d8c       0x6c build/decoder/STM32F30x_decoder.o
                0x0000000008014d8c                TIM6_registers
 .rodata.RTC_ALRMBSSR_fields
                0x0000000008014df8       0x18 build/decoder/STM32F30x_decoder.o
                0x0000000008014df8                RTC_ALRMBSSR_fields
 .rodata.TIM1_ARR_fields
                0x0000000008014e10       0x10 build/decoder/STM32F30x_decoder.o
                0x0000000008014e10                TIM1_ARR_fields
 .rodata.IWDG_KR_fields
                0x0000000008014e20       0x10 build/decoder/STM32F30x_decoder.o
                0x0000000008014e20                IWDG_KR_fields
 .rodata.NVIC_ICPR1_fields
                0x0000000008014e30       0x10 build/decoder/STM32F30x_decoder.o
                0x0000000008014e30                NVIC_ICPR1_fields
 .rodata.CAN_F4R2_fields
                0x0000000008014e40      0x108 build/decoder/STM32F30x_decoder.o
                0x0000000008014e40                CAN_F4R2_fields
 .rodata.NVIC_IPR16_fields
                0x0000000008014f48       0x28 build/decoder/STM32F30x_decoder.o
                0x0000000008014f48                NVIC_IPR16_fields
 .rodata.RTC_BKP3R_fields
                0x0000000008014f70       0x10 build/decoder/STM32F30x_decoder.o
                0x0000000008014f70                RTC_BKP3R_fields
 .rodata.TIM8_CR1_fields
                0x0000000008014f80       0x50 build/decoder/STM32F30x_decoder.o
                0x0000000008014f80                TIM8_CR1_fields
 .rodata.RTC_BKP21R_fields
                0x0000000008014fd0       0x10 build/decoder/STM32F30x_decoder.o
                0x0000000008014fd0                RTC_BKP21R_fields
 .rodata.TIM17_DCR_fields
                0x0000000008014fe0       0x18 build/decoder/STM32F30x_decoder.o
                0x0000000008014fe0                TIM17_DCR_fields
 .rodata.NVIC_IPR7_fields
                0x0000000008014ff8       0x28 build/decoder/STM32F30x_decoder.o
                0x0000000008014ff8                NVIC_IPR7_fields
 .rodata.COMP_COMP2_CSR_fields
                0x0000000008015020       0x60 build/decoder/STM32F30x_decoder.o
                0x0000000008015020                COMP_COMP2_CSR_fields
 .rodata.CAN_F4R1_fields
                0x0000000008015080      0x108 build/decoder/STM32F30x_decoder.o
                0x0000000008015080                CAN_F4R1_fields
 .rodata.RTC_BKP28R_fields
                0x0000000008015188       0x10 build/decoder/STM32F30x_decoder.o
                0x0000000008015188                RTC_BKP28R_fields
 .rodata.TIM17_PSC_fields
                0x0000000008015198       0x10 build/decoder/STM32F30x_decoder.o
                0x0000000008015198                TIM17_PSC_fields
 .rodata.GPIOB_BRR_fields
                0x00000000080151a8       0x88 build/decoder/STM32F30x_decoder.o
                0x00000000080151a8                GPIOB_BRR_fields
 .rodata.USB_FS_BTABLE_fields
                0x0000000008015230       0x10 build/decoder/STM32F30x_decoder.o
                0x0000000008015230                USB_FS_BTABLE_fields
 .rodata.CAN_F20R2_fields
                0x0000000008015240      0x108 build/decoder/STM32F30x_decoder.o
                0x0000000008015240                CAN_F20R2_fields
 .rodata.Peripherals
                0x0000000008015348      0x2a0 build/decoder/STM32F30x_decoder.o
                0x0000000008015348                Peripherals
 .rodata.RCC_AHBRSTR_fields
                0x00000000080155e8       0x50 build/decoder/STM32F30x_decoder.o
                0x00000000080155e8                RCC_AHBRSTR_fields
 .rodata.Flash_SR_fields
                0x0000000008015638       0x28 build/decoder/STM32F30x_decoder.o
                0x0000000008015638                Flash_SR_fields
 .rodata.CAN_F15R1_fields
                0x0000000008015660      0x108 build/decoder/STM32F30x_decoder.o
                0x0000000008015660                CAN_F15R1_fields
 .rodata.RTC_ALRMASSR_fields
                0x0000000008015768       0x18 build/decoder/STM32F30x_decoder.o
                0x0000000008015768                RTC_ALRMASSR_fields
 .rodata.TIM15_DIER_fields
                0x0000000008015780       0x60 build/decoder/STM32F30x_decoder.o
                0x0000000008015780                TIM15_DIER_fields
 .rodata.CAN_F24R2_fields
                0x00000000080157e0      0x108 build/decoder/STM32F30x_decoder.o
                0x00000000080157e0                CAN_F24R2_fields
 .rodata.WWDG_CR_fields
                0x00000000080158e8       0x18 build/decoder/STM32F30x_decoder.o
                0x00000000080158e8                WWDG_CR_fields
 .rodata.TIM1_CCR1_fields
                0x0000000008015900       0x10 build/decoder/STM32F30x_decoder.o
                0x0000000008015900                TIM1_CCR1_fields
 .rodata.IWDG_SR_fields
                0x0000000008015910       0x20 build/decoder/STM32F30x_decoder.o
                0x0000000008015910                IWDG_SR_fields
 .rodata.TIM2_CCMR1_Output_fields
                0x0000000008015930       0x68 build/decoder/STM32F30x_decoder.o
                0x0000000008015930                TIM2_CCMR1_Output_fields
 .rodata.TIM1_CNT_fields
                0x0000000008015998       0x18 build/decoder/STM32F30x_decoder.o
                0x0000000008015998                TIM1_CNT_fields
 .rodata.TIM15_registers
                0x00000000080159b0       0xe4 build/decoder/STM32F30x_decoder.o
                0x00000000080159b0                TIM15_registers
 .rodata.TSC_IOG7CR_fields
                0x0000000008015a94       0x10 build/decoder/STM32F30x_decoder.o
                0x0000000008015a94                TSC_IOG7CR_fields
 .rodata.SYSCFG_EXTICR1_fields
                0x0000000008015aa4       0x28 build/decoder/STM32F30x_decoder.o
                0x0000000008015aa4                SYSCFG_EXTICR1_fields
 .rodata.I2C1_RXDR_fields
                0x0000000008015acc       0x10 build/decoder/STM32F30x_decoder.o
                0x0000000008015acc                I2C1_RXDR_fields
 .rodata.TIM17_DMAR_fields
                0x0000000008015adc       0x10 build/decoder/STM32F30x_decoder.o
                0x0000000008015adc                TIM17_DMAR_fields
 .rodata.TIM16_EGR_fields
                0x0000000008015aec       0x30 build/decoder/STM32F30x_decoder.o
                0x0000000008015aec                TIM16_EGR_fields
 .rodata.EXTI_PR1_fields
                0x0000000008015b1c       0xd8 build/decoder/STM32F30x_decoder.o
                0x0000000008015b1c                EXTI_PR1_fields
 .rodata.GPIOB_ODR_fields
                0x0000000008015bf4       0x88 build/decoder/STM32F30x_decoder.o
                0x0000000008015bf4                GPIOB_ODR_fields
 .rodata.RTC_BKP9R_fields
                0x0000000008015c7c       0x10 build/decoder/STM32F30x_decoder.o
                0x0000000008015c7c                RTC_BKP9R_fields
 .rodata.DMA1_ISR_fields
                0x0000000008015c8c       0xe8 build/decoder/STM32F30x_decoder.o
                0x0000000008015c8c                DMA1_ISR_fields
 .rodata.USART1_RTOR_fields
                0x0000000008015d74       0x18 build/decoder/STM32F30x_decoder.o
                0x0000000008015d74                USART1_RTOR_fields
 .rodata.RTC_BKP12R_fields
                0x0000000008015d8c       0x10 build/decoder/STM32F30x_decoder.o
                0x0000000008015d8c                RTC_BKP12R_fields
 .rodata.TIM2_PSC_fields
                0x0000000008015d9c       0x10 build/decoder/STM32F30x_decoder.o
                0x0000000008015d9c                TIM2_PSC_fields
 .rodata.CAN_F7R2_fields
                0x0000000008015dac      0x108 build/decoder/STM32F30x_decoder.o
                0x0000000008015dac                CAN_F7R2_fields
 .rodata.SYSCFG_EXTICR4_fields
                0x0000000008015eb4       0x28 build/decoder/STM32F30x_decoder.o
                0x0000000008015eb4                SYSCFG_EXTICR4_fields
 .rodata.RTC_BKP19R_fields
                0x0000000008015edc       0x10 build/decoder/STM32F30x_decoder.o
                0x0000000008015edc                RTC_BKP19R_fields
 .rodata.TIM2_CR2_fields
                0x0000000008015eec       0x20 build/decoder/STM32F30x_decoder.o
                0x0000000008015eec                TIM2_CR2_fields
 .rodata.CAN_RI0R_fields
                0x0000000008015f0c       0x28 build/decoder/STM32F30x_decoder.o
                0x0000000008015f0c                CAN_RI0R_fields
 .rodata.CAN_TI1R_fields
                0x0000000008015f34       0x30 build/decoder/STM32F30x_decoder.o
                0x0000000008015f34                CAN_TI1R_fields
 .rodata.CAN_F18R2_fields
                0x0000000008015f64      0x108 build/decoder/STM32F30x_decoder.o
                0x0000000008015f64                CAN_F18R2_fields
 .rodata.ADC1_2_registers
                0x000000000801606c       0x30 build/decoder/STM32F30x_decoder.o
                0x000000000801606c                ADC1_2_registers
 .rodata.DES_UID2_fields
                0x000000000801609c       0x10 build/decoder/STM32F30x_decoder.o
                0x000000000801609c                DES_UID2_fields
 .rodata.TIM6_CR1_fields
                0x00000000080160ac       0x38 build/decoder/STM32F30x_decoder.o
                0x00000000080160ac                TIM6_CR1_fields
 .rodata.USB_FS_USB_EP0R_fields
                0x00000000080160e4       0x58 build/decoder/STM32F30x_decoder.o
                0x00000000080160e4                USB_FS_USB_EP0R_fields
 .rodata.TIM15_CCMR1_Output_fields
                0x000000000801613c       0x58 build/decoder/STM32F30x_decoder.o
                0x000000000801613c                TIM15_CCMR1_Output_fields
 .rodata.NVIC_IABR1_fields
                0x0000000008016194       0x10 build/decoder/STM32F30x_decoder.o
                0x0000000008016194                NVIC_IABR1_fields
 .rodata.DMA1_CCR1_fields
                0x00000000080161a4       0x68 build/decoder/STM32F30x_decoder.o
                0x00000000080161a4                DMA1_CCR1_fields
 .rodata.NVIC_IPR12_fields
                0x000000000801620c       0x28 build/decoder/STM32F30x_decoder.o
                0x000000000801620c                NVIC_IPR12_fields
 .rodata.CAN_F0R1_fields
                0x0000000008016234      0x108 build/decoder/STM32F30x_decoder.o
                0x0000000008016234                CAN_F0R1_fields
 .rodata.COMP_COMP5_CSR_fields
                0x000000000801633c       0x58 build/decoder/STM32F30x_decoder.o
                0x000000000801633c                COMP_COMP5_CSR_fields
 .rodata.TIM16_CCER_fields
                0x0000000008016394       0x28 build/decoder/STM32F30x_decoder.o
                0x0000000008016394                TIM16_CCER_fields
 .rodata.DAC_DHR8RD_fields
                0x00000000080163bc       0x18 build/decoder/STM32F30x_decoder.o
                0x00000000080163bc                DAC_DHR8RD_fields
 .rodata.CRC_INIT_fields
                0x00000000080163d4       0x10 build/decoder/STM32F30x_decoder.o
                0x00000000080163d4                CRC_INIT_fields
 .rodata.ADC1_JSQR_fields
                0x00000000080163e4       0x40 build/decoder/STM32F30x_decoder.o
                0x00000000080163e4                ADC1_JSQR_fields
 .rodata.TIM8_OR_fields
                0x0000000008016424       0x18 build/decoder/STM32F30x_decoder.o
                0x0000000008016424                TIM8_OR_fields
 .rodata.CAN_F26R1_fields
                0x000000000801643c      0x108 build/decoder/STM32F30x_decoder.o
                0x000000000801643c                CAN_F26R1_fields
 .rodata.DMA1_CMAR5_fields
                0x0000000008016544       0x10 build/decoder/STM32F30x_decoder.o
                0x0000000008016544                DMA1_CMAR5_fields
 .rodata.OPAMP_OPAMP1_CR_fields
                0x0000000008016554       0x88 build/decoder/STM32F30x_decoder.o
                0x0000000008016554                OPAMP_OPAMP1_CR_fields
 .rodata.NVIC_ICER0_fields
                0x00000000080165dc       0x10 build/decoder/STM32F30x_decoder.o
                0x00000000080165dc                NVIC_ICER0_fields
 .rodata.CAN_F9R2_fields
                0x00000000080165ec      0x108 build/decoder/STM32F30x_decoder.o
                0x00000000080165ec                CAN_F9R2_fields
 .rodata.ADC1_TR2_fields
                0x00000000080166f4       0x18 build/decoder/STM32F30x_decoder.o
                0x00000000080166f4                ADC1_TR2_fields
 .rodata.ADC1_AWD3CR_fields
                0x000000000801670c       0x10 build/decoder/STM32F30x_decoder.o
                0x000000000801670c                ADC1_AWD3CR_fields
 .rodata.TIM17_CR1_fields
                0x000000000801671c       0x40 build/decoder/STM32F30x_decoder.o
                0x000000000801671c                TIM17_CR1_fields
 .rodata.ADC1_SMPR2_fields
                0x000000000801675c       0x50 build/decoder/STM32F30x_decoder.o
                0x000000000801675c                ADC1_SMPR2_fields
 .rodata.USB_FS_USB_EP6R_fields
                0x00000000080167ac       0x58 build/decoder/STM32F30x_decoder.o
                0x00000000080167ac                USB_FS_USB_EP6R_fields
 .rodata.NVIC_IPR2_fields
                0x0000000008016804       0x28 build/decoder/STM32F30x_decoder.o
                0x0000000008016804                NVIC_IPR2_fields
 .rodata.SYSCFG_CFGR2_fields
                0x000000000801682c       0x30 build/decoder/STM32F30x_decoder.o
                0x000000000801682c                SYSCFG_CFGR2_fields
 .rodata.EXTI_FTSR2_fields
                0x000000000801685c       0x18 build/decoder/STM32F30x_decoder.o
                0x000000000801685c                EXTI_FTSR2_fields
 .rodata.TSC_IOG3CR_fields
                0x0000000008016874       0x10 build/decoder/STM32F30x_decoder.o
                0x0000000008016874                TSC_IOG3CR_fields
 .rodata.CAN_F21R2_fields
                0x0000000008016884      0x108 build/decoder/STM32F30x_decoder.o
                0x0000000008016884                CAN_F21R2_fields
 .rodata.DMA1_CNDTR7_fields
                0x000000000801698c       0x10 build/decoder/STM32F30x_decoder.o
                0x000000000801698c                DMA1_CNDTR7_fields
 .rodata.RTC_BKP24R_fields
                0x000000000801699c       0x10 build/decoder/STM32F30x_decoder.o
                0x000000000801699c                RTC_BKP24R_fields
 .rodata.ADC1_SQR3_fields
                0x00000000080169ac       0x30 build/decoder/STM32F30x_decoder.o
                0x00000000080169ac                ADC1_SQR3_fields
 .rodata.RTC_BKP25R_fields
                0x00000000080169dc       0x10 build/decoder/STM32F30x_decoder.o
                0x00000000080169dc                RTC_BKP25R_fields
 .rodata.CAN_FMR_fields
                0x00000000080169ec       0x18 build/decoder/STM32F30x_decoder.o
                0x00000000080169ec                CAN_FMR_fields
 .rodata.DMA1_CNDTR1_fields
                0x0000000008016a04       0x10 build/decoder/STM32F30x_decoder.o
                0x0000000008016a04                DMA1_CNDTR1_fields
 .rodata.ADC1_CALFACT_fields
                0x0000000008016a14       0x18 build/decoder/STM32F30x_decoder.o
                0x0000000008016a14                ADC1_CALFACT_fields
 .rodata.RTC_SSR_fields
                0x0000000008016a2c       0x10 build/decoder/STM32F30x_decoder.o
                0x0000000008016a2c                RTC_SSR_fields
 .rodata.TIM1_CCR4_fields
                0x0000000008016a3c       0x10 build/decoder/STM32F30x_decoder.o
                0x0000000008016a3c                TIM1_CCR4_fields
 .rodata.USB_FS_registers
                0x0000000008016a4c       0xa8 build/decoder/STM32F30x_decoder.o
                0x0000000008016a4c                USB_FS_registers
 .rodata.TSC_ICR_fields
                0x0000000008016af4       0x18 build/decoder/STM32F30x_decoder.o
                0x0000000008016af4                TSC_ICR_fields
 .rodata.TIM8_RCR_fields
                0x0000000008016b0c       0x10 build/decoder/STM32F30x_decoder.o
                0x0000000008016b0c                TIM8_RCR_fields
 .rodata.TIM16_CR2_fields
                0x0000000008016b1c       0x30 build/decoder/STM32F30x_decoder.o
                0x0000000008016b1c                TIM16_CR2_fields
 .rodata.SPI1_I2SPR_fields
                0x0000000008016b4c       0x20 build/decoder/STM32F30x_decoder.o
                0x0000000008016b4c                SPI1_I2SPR_fields
 .rodata.CAN_F14R2_fields
                0x0000000008016b6c      0x108 build/decoder/STM32F30x_decoder.o
                0x0000000008016b6c                CAN_F14R2_fields
 .rodata.GPIOA_registers
                0x0000000008016c74       0x90 build/decoder/STM32F30x_decoder.o
                0x0000000008016c74                GPIOA_registers
 .rodata.TIM8_CCR3_fields
                0x0000000008016d04       0x10 build/decoder/STM32F30x_decoder.o
                0x0000000008016d04                TIM8_CCR3_fields
 .rodata.TIM17_CCER_fields
                0x0000000008016d14       0x28 build/decoder/STM32F30x_decoder.o
                0x0000000008016d14                TIM17_CCER_fields
 .rodata.TSC_IOG4CR_fields
                0x0000000008016d3c       0x10 build/decoder/STM32F30x_decoder.o
                0x0000000008016d3c                TSC_IOG4CR_fields
 .rodata.DMA1_CPAR1_fields
                0x0000000008016d4c       0x10 build/decoder/STM32F30x_decoder.o
                0x0000000008016d4c                DMA1_CPAR1_fields
 .rodata.TIM16_DMAR_fields
                0x0000000008016d5c       0x10 build/decoder/STM32F30x_decoder.o
                0x0000000008016d5c                TIM16_DMAR_fields
 .rodata.DAC_DHR12LD_fields
                0x0000000008016d6c       0x18 build/decoder/STM32F30x_decoder.o
                0x0000000008016d6c                DAC_DHR12LD_fields
 .rodata.ADC1_JDR2_fields
                0x0000000008016d84       0x10 build/decoder/STM32F30x_decoder.o
                0x0000000008016d84                ADC1_JDR2_fields
 .rodata.CAN_TDT0R_fields
                0x0000000008016d94       0x20 build/decoder/STM32F30x_decoder.o
                0x0000000008016d94                CAN_TDT0R_fields
 .rodata.CAN_F9R1_fields
                0x0000000008016db4      0x108 build/decoder/STM32F30x_decoder.o
                0x0000000008016db4                CAN_F9R1_fields
 .rodata.GPIOA_OSPEEDR_fields
                0x0000000008016ebc       0x88 build/decoder/STM32F30x_decoder.o
                0x0000000008016ebc                GPIOA_OSPEEDR_fields
 .rodata.DBGMCU_APB1FZ_fields
                0x0000000008016f44       0x88 build/decoder/STM32F30x_decoder.o
                0x0000000008016f44                DBGMCU_APB1FZ_fields
 .rodata.I2C1_OAR1_fields
                0x0000000008016fcc       0x30 build/decoder/STM32F30x_decoder.o
                0x0000000008016fcc                I2C1_OAR1_fields
 .rodata.DMA1_CNDTR2_fields
                0x0000000008016ffc       0x10 build/decoder/STM32F30x_decoder.o
                0x0000000008016ffc                DMA1_CNDTR2_fields
 .rodata.CAN_F22R1_fields
                0x000000000801700c      0x108 build/decoder/STM32F30x_decoder.o
                0x000000000801700c                CAN_F22R1_fields
 .rodata.GPIOA_PUPDR_fields
                0x0000000008017114       0x88 build/decoder/STM32F30x_decoder.o
                0x0000000008017114                GPIOA_PUPDR_fields
 .rodata.NVIC_ISPR1_fields
                0x000000000801719c       0x10 build/decoder/STM32F30x_decoder.o
                0x000000000801719c                NVIC_ISPR1_fields
 .rodata.ADC1_CR_fields
                0x00000000080171ac       0x58 build/decoder/STM32F30x_decoder.o
                0x00000000080171ac                ADC1_CR_fields
 .rodata.DMA1_CPAR4_fields
                0x0000000008017204       0x10 build/decoder/STM32F30x_decoder.o
                0x0000000008017204                DMA1_CPAR4_fields
 .rodata.TIM2_CCR3_fields
                0x0000000008017214       0x18 build/decoder/STM32F30x_decoder.o
                0x0000000008017214                TIM2_CCR3_fields
 .rodata.str1.1
                0x000000000801722c     0x3386 build/decoder/STM32F30x_decoder.o
                                       0x36cb (size before relaxing)
 *fill*         0x000000000801a5b2        0x2 
 .rodata.ADC1_OFR3_fields
                0x000000000801a5b4       0x20 build/decoder/STM32F30x_decoder.o
                0x000000000801a5b4                ADC1_OFR3_fields
 .rodata.USART1_ISR_fields
                0x000000000801a5d4       0xb8 build/decoder/STM32F30x_decoder.o
                0x000000000801a5d4                USART1_ISR_fields
 .rodata.RTC_BKP5R_fields
                0x000000000801a68c       0x10 build/decoder/STM32F30x_decoder.o
                0x000000000801a68c                RTC_BKP5R_fields
 .rodata.DMA1_CCR4_fields
                0x000000000801a69c       0x68 build/decoder/STM32F30x_decoder.o
                0x000000000801a69c                DMA1_CCR4_fields
 .rodata.DMA1_CNDTR5_fields
                0x000000000801a704       0x10 build/decoder/STM32F30x_decoder.o
                0x000000000801a704                DMA1_CNDTR5_fields
 .rodata.EXTI_SWIER1_fields
                0x000000000801a714       0xd8 build/decoder/STM32F30x_decoder.o
                0x000000000801a714                EXTI_SWIER1_fields
 .rodata.TIM8_CCMR2_Input_fields
                0x000000000801a7ec       0x38 build/decoder/STM32F30x_decoder.o
                0x000000000801a7ec                TIM8_CCMR2_Input_fields
 .rodata.RCC_APB2RSTR_fields
                0x000000000801a824       0x48 build/decoder/STM32F30x_decoder.o
                0x000000000801a824                RCC_APB2RSTR_fields
 .rodata.USART1_BRR_fields
                0x000000000801a86c       0x18 build/decoder/STM32F30x_decoder.o
                0x000000000801a86c                USART1_BRR_fields
 .rodata.RTC_BKP31R_fields
                0x000000000801a884       0x10 build/decoder/STM32F30x_decoder.o
                0x000000000801a884                RTC_BKP31R_fields
 .rodata.RTC_BKP29R_fields
                0x000000000801a894       0x10 build/decoder/STM32F30x_decoder.o
                0x000000000801a894                RTC_BKP29R_fields
 .rodata.DMA1_CMAR4_fields
                0x000000000801a8a4       0x10 build/decoder/STM32F30x_decoder.o
                0x000000000801a8a4                DMA1_CMAR4_fields
 .rodata.CAN_F5R1_fields
                0x000000000801a8b4      0x108 build/decoder/STM32F30x_decoder.o
                0x000000000801a8b4                CAN_F5R1_fields
 .rodata.CRC_IDR_fields
                0x000000000801a9bc       0x10 build/decoder/STM32F30x_decoder.o
                0x000000000801a9bc                CRC_IDR_fields
 .rodata.TIM16_PSC_fields
                0x000000000801a9cc       0x10 build/decoder/STM32F30x_decoder.o
                0x000000000801a9cc                TIM16_PSC_fields
 .rodata.DMA1_CCR7_fields
                0x000000000801a9dc       0x68 build/decoder/STM32F30x_decoder.o
                0x000000000801a9dc                DMA1_CCR7_fields
 .rodata.ADC1_DIFSEL_fields
                0x000000000801aa44       0x18 build/decoder/STM32F30x_decoder.o
                0x000000000801aa44                ADC1_DIFSEL_fields
 .rodata.TIM1_DMAR_fields
                0x000000000801aa5c       0x10 build/decoder/STM32F30x_decoder.o
                0x000000000801aa5c                TIM1_DMAR_fields
 .rodata.I2C1_PECR_fields
                0x000000000801aa6c       0x10 build/decoder/STM32F30x_decoder.o
                0x000000000801aa6c                I2C1_PECR_fields
 .rodata.COMP_COMP3_CSR_fields
                0x000000000801aa7c       0x58 build/decoder/STM32F30x_decoder.o
                0x000000000801aa7c                COMP_COMP3_CSR_fields
 .rodata.OPAMP_registers
                0x000000000801aad4       0x3c build/decoder/STM32F30x_decoder.o
                0x000000000801aad4                OPAMP_registers
 .rodata.CAN_F17R2_fields
                0x000000000801ab10      0x108 build/decoder/STM32F30x_decoder.o
                0x000000000801ab10                CAN_F17R2_fields
 .rodata.TIM8_EGR_fields
                0x000000000801ac18       0x50 build/decoder/STM32F30x_decoder.o
                0x000000000801ac18                TIM8_EGR_fields
 .rodata.NVIC_IPR5_fields
                0x000000000801ac68       0x28 build/decoder/STM32F30x_decoder.o
                0x000000000801ac68                NVIC_IPR5_fields
 .rodata.TIM8_SR_fields
                0x000000000801ac90       0x80 build/decoder/STM32F30x_decoder.o
                0x000000000801ac90                TIM8_SR_fields
 .rodata.DAC_DHR12R1_fields
                0x000000000801ad10       0x10 build/decoder/STM32F30x_decoder.o
                0x000000000801ad10                DAC_DHR12R1_fields
 .rodata.CAN_F25R2_fields
                0x000000000801ad20      0x108 build/decoder/STM32F30x_decoder.o
                0x000000000801ad20                CAN_F25R2_fields
 .rodata.APBAHBPrescTable
                0x000000000801ae28       0x10 build/Drivers/STM32F3xx_HAL_Driver/Src/stm32f3xx_hal_rcc.o
                0x000000000801ae28                APBAHBPrescTable
 .rodata.PredivFactorTable
                0x000000000801ae38       0x10 build/Drivers/STM32F3xx_HAL_Driver/Src/stm32f3xx_hal_rcc.o
                0x000000000801ae38                PredivFactorTable
 .rodata.PLLMULFactorTable
                0x000000000801ae48       0x10 build/Drivers/STM32F3xx_HAL_Driver/Src/stm32f3xx_hal_rcc.o
                0x000000000801ae48                PLLMULFactorTable
 .rodata.USBD_LangIDDesc
                0x000000000801ae58        0x4 build/usbd_desc.o
                0x000000000801ae58                USBD_LangIDDesc
 .rodata.str1.1
                0x000000000801ae5c       0x4d build/usbd_desc.o
 .rodata.hUSBDDeviceDesc
                0x000000000801aea9       0x12 build/usbd_desc.o
                0x000000000801aea9                hUSBDDeviceDesc
 *fill*         0x000000000801aebb        0x1 
 .rodata.LED_PIN
                0x000000000801aebc       0x10 build/Drivers/BSP/STM32F3-Discovery/stm32f3_discovery.o
                0x000000000801aebc                LED_PIN
 .rodata._ctype_
                0x000000000801aecc      0x104 /usr/lib/gcc/arm-none-eabi/4.9.3/../../../arm-none-eabi/lib/armv7e-m/fpu/libg.a(lib_a-ctype_.o)
                0x000000000801aecc                _ctype_
 .rodata.str1.4
                0x000000000801afd0        0x2 /usr/lib/gcc/arm-none-eabi/4.9.3/../../../arm-none-eabi/lib/armv7e-m/fpu/libg.a(lib_a-impure.o)
                                          0x4 (size before relaxing)
 *fill*         0x000000000801afd2        0x2 
 .rodata._global_impure_ptr
                0x000000000801afd4        0x4 /usr/lib/gcc/arm-none-eabi/4.9.3/../../../arm-none-eabi/lib/armv7e-m/fpu/libg.a(lib_a-impure.o)
                0x000000000801afd4                _global_impure_ptr
 .rodata.str1.4
                0x000000000801afd8        0x2 /usr/lib/gcc/arm-none-eabi/4.9.3/../../../arm-none-eabi/lib/armv7e-m/fpu/libg.a(lib_a-puts.o)
                                          0x4 (size before relaxing)
 *fill*         0x000000000801afda        0x2 
 .rodata.zeroes.6926
                0x000000000801afdc       0x10 /usr/lib/gcc/arm-none-eabi/4.9.3/../../../arm-none-eabi/lib/armv7e-m/fpu/libg.a(lib_a-vfprintf.o)
 .rodata.str1.4
                0x000000000801afec       0x42 /usr/lib/gcc/arm-none-eabi/4.9.3/../../../arm-none-eabi/lib/armv7e-m/fpu/libg.a(lib_a-vfprintf.o)
                                         0x44 (size before relaxing)
 *fill*         0x000000000801b02e        0x2 
 .rodata.blanks.6925
                0x000000000801b030       0x10 /usr/lib/gcc/arm-none-eabi/4.9.3/../../../arm-none-eabi/lib/armv7e-m/fpu/libg.a(lib_a-vfprintf.o)
 .rodata.str1.4
                0x000000000801b040       0x10 /usr/lib/gcc/arm-none-eabi/4.9.3/../../../arm-none-eabi/lib/armv7e-m/fpu/libg.a(lib_a-dtoa.o)
                                         0x14 (size before relaxing)
 .rodata.str1.4
                0x000000000801b050        0xc /usr/lib/gcc/arm-none-eabi/4.9.3/../../../arm-none-eabi/lib/armv7e-m/fpu/libg.a(lib_a-locale.o)
                                         0x14 (size before relaxing)
 *fill*         0x000000000801b05c        0x4 
 .rodata.__mprec_tens
                0x000000000801b060       0xc8 /usr/lib/gcc/arm-none-eabi/4.9.3/../../../arm-none-eabi/lib/armv7e-m/fpu/libg.a(lib_a-mprec.o)
                0x000000000801b060                __mprec_tens
 .rodata.p05.5302
                0x000000000801b128        0xc /usr/lib/gcc/arm-none-eabi/4.9.3/../../../arm-none-eabi/lib/armv7e-m/fpu/libg.a(lib_a-mprec.o)
 *fill*         0x000000000801b134        0x4 
 .rodata.__mprec_bigtens
                0x000000000801b138       0x28 /usr/lib/gcc/arm-none-eabi/4.9.3/../../../arm-none-eabi/lib/armv7e-m/fpu/libg.a(lib_a-mprec.o)
                0x000000000801b138                __mprec_bigtens
                0x000000000801b160                . = ALIGN (0x4)

.ARM.extab
 *(.ARM.extab* .gnu.linkonce.armextab.*)

.ARM            0x000000000801b160        0x8
                0x000000000801b160                __exidx_start = .
 *(.ARM.exidx*)
 .ARM.exidx     0x000000000801b160        0x8 /usr/lib/gcc/arm-none-eabi/4.9.3/armv7e-m/fpu/libgcc.a(_divdi3.o)
 .ARM.exidx     0x000000000801b168        0x0 /usr/lib/gcc/arm-none-eabi/4.9.3/armv7e-m/fpu/libgcc.a(_udivdi3.o)
                                          0x8 (size before relaxing)
                0x000000000801b168                __exidx_end = .

.preinit_array  0x000000000801b168        0x0
                0x000000000801b168                PROVIDE (__preinit_array_start, .)
 *(.preinit_array*)
                0x000000000801b168                PROVIDE (__preinit_array_end, .)

.init_array     0x000000000801b168        0x8
                0x000000000801b168                PROVIDE (__init_array_start, .)
 *(SORT(.init_array.*))
 .init_array.00000
                0x000000000801b168        0x4 /usr/lib/gcc/arm-none-eabi/4.9.3/../../../arm-none-eabi/lib/armv7e-m/fpu/libg.a(lib_a-__call_atexit.o)
 *(.init_array*)
 .init_array    0x000000000801b16c        0x4 /usr/lib/gcc/arm-none-eabi/4.9.3/armv7e-m/fpu/crtbegin.o
                0x000000000801b170                PROVIDE (__init_array_end, .)

.fini_array     0x000000000801b170        0x4
                0x000000000801b170                PROVIDE (__fini_array_start, .)
 *(SORT(.fini_array.*))
 *(.fini_array*)
 .fini_array    0x000000000801b170        0x4 /usr/lib/gcc/arm-none-eabi/4.9.3/armv7e-m/fpu/crtbegin.o
                0x000000000801b174                PROVIDE (__fini_array_end, .)
                0x000000000801b174                _sidata = LOADADDR (.data)

.data           0x0000000020000000      0xa9c load address 0x000000000801b174
                0x0000000020000000                . = ALIGN (0x4)
                0x0000000020000000                _sdata = .
 *(.data)
 .data          0x0000000020000000        0x4 build/mycode.o
                0x0000000020000000                myTickCount
 *(.data*)
 .data.buf.5806
                0x0000000020000004        0x4 build/parser.o
 .data.printPrompt.5807
                0x0000000020000008        0x4 build/parser.o
 .data.Commands
                0x000000002000000c        0x4 build/parser.o
                0x000000002000000c                Commands
 .data.count.5235
                0x0000000020000010        0x4 build/dump.o
 .data.SystemCoreClock
                0x0000000020000014        0x4 build/Drivers/CMSIS/Device/ST/STM32F3xx/Source/Templates/system_stm32f3xx.o
                0x0000000020000014                SystemCoreClock
 .data.USBD_CDC_CfgFSDesc
                0x0000000020000018       0x43 build/Drivers/STM32_USB_Device_Library/Class/CDC/Src/usbd_cdc.o
                0x0000000020000018                USBD_CDC_CfgFSDesc
 *fill*         0x000000002000005b        0x1 
 .data.USBD_CDC
                0x000000002000005c       0x38 build/Drivers/STM32_USB_Device_Library/Class/CDC/Src/usbd_cdc.o
                0x000000002000005c                USBD_CDC
 .data.USBD_CDC_DeviceQualifierDesc
                0x0000000020000094        0xa build/Drivers/STM32_USB_Device_Library/Class/CDC/Src/usbd_cdc.o
 *fill*         0x000000002000009e        0x2 
 .data.USBD_CDC_OtherSpeedCfgDesc
                0x00000000200000a0       0x43 build/Drivers/STM32_USB_Device_Library/Class/CDC/Src/usbd_cdc.o
                0x00000000200000a0                USBD_CDC_OtherSpeedCfgDesc
 *fill*         0x00000000200000e3        0x1 
 .data.USBD_CDC_CfgHSDesc
                0x00000000200000e4       0x43 build/Drivers/STM32_USB_Device_Library/Class/CDC/Src/usbd_cdc.o
                0x00000000200000e4                USBD_CDC_CfgHSDesc
 *fill*         0x0000000020000127        0x1 
 .data.VCP_Desc
                0x0000000020000128       0x1c build/usbd_desc.o
                0x0000000020000128                VCP_Desc
 .data.USBD_StringSerial
                0x0000000020000144       0x1a build/usbd_desc.o
                0x0000000020000144                USBD_StringSerial
 *fill*         0x000000002000015e        0x2 
 .data.LineCoding
                0x0000000020000160        0x8 build/usbd_cdc_interface.o
                0x0000000020000160                LineCoding
 .data.USBD_CDC_fops
                0x0000000020000168       0x10 build/usbd_cdc_interface.o
                0x0000000020000168                USBD_CDC_fops
 .data.SpixTimeout
                0x0000000020000178        0x4 build/Drivers/BSP/STM32F3-Discovery/stm32f3_discovery.o
                0x0000000020000178                SpixTimeout
 .data.BUTTON_PORT
                0x000000002000017c        0x4 build/Drivers/BSP/STM32F3-Discovery/stm32f3_discovery.o
                0x000000002000017c                BUTTON_PORT
 .data.I2cxTimeout
                0x0000000020000180        0x4 build/Drivers/BSP/STM32F3-Discovery/stm32f3_discovery.o
                0x0000000020000180                I2cxTimeout
 .data.LED_PORT
                0x0000000020000184       0x20 build/Drivers/BSP/STM32F3-Discovery/stm32f3_discovery.o
                0x0000000020000184                LED_PORT
 .data.Lsm303dlhcDrv
                0x00000000200001a4       0x2c build/Drivers/BSP/Components/lsm303dlhc/lsm303dlhc.o
                0x00000000200001a4                Lsm303dlhcDrv
 .data.L3gd20Drv
                0x00000000200001d0       0x2c build/Drivers/BSP/Components/l3gd20/l3gd20.o
                0x00000000200001d0                L3gd20Drv
 .data.__ctype_ptr__
                0x00000000200001fc        0x4 /usr/lib/gcc/arm-none-eabi/4.9.3/../../../arm-none-eabi/lib/armv7e-m/fpu/libg.a(lib_a-ctype_.o)
                0x00000000200001fc                __ctype_ptr__
 .data.impure_data
                0x0000000020000200      0x428 /usr/lib/gcc/arm-none-eabi/4.9.3/../../../arm-none-eabi/lib/armv7e-m/fpu/libg.a(lib_a-impure.o)
 .data._impure_ptr
                0x0000000020000628        0x4 /usr/lib/gcc/arm-none-eabi/4.9.3/../../../arm-none-eabi/lib/armv7e-m/fpu/libg.a(lib_a-impure.o)
                0x0000000020000628                _impure_ptr
 .data.lconv    0x000000002000062c       0x38 /usr/lib/gcc/arm-none-eabi/4.9.3/../../../arm-none-eabi/lib/armv7e-m/fpu/libg.a(lib_a-locale.o)
 .data.lc_ctype_charset
                0x0000000020000664       0x20 /usr/lib/gcc/arm-none-eabi/4.9.3/../../../arm-none-eabi/lib/armv7e-m/fpu/libg.a(lib_a-locale.o)
 .data.__mb_cur_max
                0x0000000020000684        0x4 /usr/lib/gcc/arm-none-eabi/4.9.3/../../../arm-none-eabi/lib/armv7e-m/fpu/libg.a(lib_a-locale.o)
                0x0000000020000684                __mb_cur_max
 .data.__malloc_av_
                0x0000000020000688      0x408 /usr/lib/gcc/arm-none-eabi/4.9.3/../../../arm-none-eabi/lib/armv7e-m/fpu/libg.a(lib_a-mallocr.o)
                0x0000000020000688                __malloc_av_
 .data.__malloc_trim_threshold
                0x0000000020000a90        0x4 /usr/lib/gcc/arm-none-eabi/4.9.3/../../../arm-none-eabi/lib/armv7e-m/fpu/libg.a(lib_a-mallocr.o)
                0x0000000020000a90                __malloc_trim_threshold
 .data.__malloc_sbrk_base
                0x0000000020000a94        0x4 /usr/lib/gcc/arm-none-eabi/4.9.3/../../../arm-none-eabi/lib/armv7e-m/fpu/libg.a(lib_a-mallocr.o)
                0x0000000020000a94                __malloc_sbrk_base
 .data.__wctomb
                0x0000000020000a98        0x4 /usr/lib/gcc/arm-none-eabi/4.9.3/../../../arm-none-eabi/lib/armv7e-m/fpu/libg.a(lib_a-wctomb_r.o)
                0x0000000020000a98                __wctomb
                0x0000000020000a9c                . = ALIGN (0x4)
                0x0000000020000a9c                _edata = .
                0x000000000801bc10                _siccmram = LOADADDR (.ccmram)

.jcr            0x0000000020000a9c        0x0 load address 0x000000000801bc10
 .jcr           0x0000000020000a9c        0x0 /usr/lib/gcc/arm-none-eabi/4.9.3/armv7e-m/fpu/crtbegin.o

.tm_clone_table
                0x0000000020000a9c        0x0 load address 0x000000000801bc10
 .tm_clone_table
                0x0000000020000a9c        0x0 /usr/lib/gcc/arm-none-eabi/4.9.3/armv7e-m/fpu/crtbegin.o
 .tm_clone_table
                0x0000000020000a9c        0x0 /usr/lib/gcc/arm-none-eabi/4.9.3/armv7e-m/fpu/crtend.o

.igot.plt       0x0000000020000a9c        0x0 load address 0x000000000801bc10
 .igot.plt      0x0000000020000a9c        0x0 /usr/lib/gcc/arm-none-eabi/4.9.3/armv7e-m/fpu/crtbegin.o

.ccmram         0x0000000010000000        0x0 load address 0x000000000801bc10
                0x0000000010000000                . = ALIGN (0x4)
                0x0000000010000000                _sccmram = .
 *(.ccmram)
 *(.ccmram*)
                0x0000000010000000                . = ALIGN (0x4)
                0x0000000010000000                _eccmram = .
                0x0000000010000000                . = ALIGN (0x4)

.bss            0x0000000020000a9c     0x3c80
                0x0000000020000a9c                _sbss = .
                0x0000000020000a9c                __bss_start__ = _sbss
 *(.bss)
 .bss           0x0000000020000a9c       0x1c /usr/lib/gcc/arm-none-eabi/4.9.3/armv7e-m/fpu/crtbegin.o
 *(.bss*)
 .bss.counter   0x0000000020000ab8        0x4 build/simple_task.o
 .bss.count.5804
                0x0000000020000abc        0x4 build/parser.o
 .bss.saved.5805
                0x0000000020000ac0        0x4 build/parser.o
 .bss.address.5234
                0x0000000020000ac4        0x4 build/dump.o
 .bss.heap_end.5843
                0x0000000020000ac8        0x4 build/syscall.o
 .bss.TerminalState
                0x0000000020000acc      0x124 build/terminal.o
 .bss.uwTick    0x0000000020000bf0        0x4 build/Drivers/STM32F3xx_HAL_Driver/Src/stm32f3xx_hal.o
 .bss.cfgidx.10117
                0x0000000020000bf4        0x1 build/Drivers/STM32_USB_Device_Library/Core/Src/usbd_ctlreq.o
 *fill*         0x0000000020000bf5        0x3 
 .bss.mem.10340
                0x0000000020000bf8      0x230 build/usbd_conf.o
 .bss.SpiHandle
                0x0000000020000e28       0x60 build/Drivers/BSP/STM32F3-Discovery/stm32f3_discovery.o
 .bss.I2cHandle
                0x0000000020000e88       0x38 build/Drivers/BSP/STM32F3-Discovery/stm32f3_discovery.o
 .bss.AccelerometerDrv
                0x0000000020000ec0        0x4 build/Drivers/BSP/STM32F3-Discovery/stm32f3_discovery_accelerometer.o
 .bss.GyroscopeDrv
                0x0000000020000ec4        0x4 build/Drivers/BSP/STM32F3-Discovery/stm32f3_discovery_gyroscope.o
 .bss.__malloc_max_total_mem
                0x0000000020000ec8        0x4 /usr/lib/gcc/arm-none-eabi/4.9.3/../../../arm-none-eabi/lib/armv7e-m/fpu/libg.a(lib_a-mallocr.o)
                0x0000000020000ec8                __malloc_max_total_mem
 .bss.__malloc_max_sbrked_mem
                0x0000000020000ecc        0x4 /usr/lib/gcc/arm-none-eabi/4.9.3/../../../arm-none-eabi/lib/armv7e-m/fpu/libg.a(lib_a-mallocr.o)
                0x0000000020000ecc                __malloc_max_sbrked_mem
 .bss.__malloc_top_pad
                0x0000000020000ed0        0x4 /usr/lib/gcc/arm-none-eabi/4.9.3/../../../arm-none-eabi/lib/armv7e-m/fpu/libg.a(lib_a-mallocr.o)
                0x0000000020000ed0                __malloc_top_pad
 .bss.__malloc_current_mallinfo
                0x0000000020000ed4       0x28 /usr/lib/gcc/arm-none-eabi/4.9.3/../../../arm-none-eabi/lib/armv7e-m/fpu/libg.a(lib_a-mallocr.o)
                0x0000000020000ed4                __malloc_current_mallinfo
 *(COMMON)
 COMMON         0x0000000020000efc     0x2a34 build/task_executive1.o
                0x0000000020000efc                tasks
                0x000000002000112c                currentTask
                0x0000000020001130                stacks
 COMMON         0x0000000020003930       0xa0 build/parser.o
                0x0000000020003930                input_b
                0x0000000020003980                input
 COMMON         0x00000000200039d0      0x228 build/terminal.o
                0x00000000200039d0                hUSBDDevice
                0x0000000020003bf4                USBDDataIn
 COMMON         0x0000000020003bf8      0x178 build/usbd_conf.o
                0x0000000020003bf8                hpcd
 COMMON         0x0000000020003d70      0x100 build/usbd_desc.o
                0x0000000020003d70                USBD_StrDesc
 COMMON         0x0000000020003e70      0x8ac build/usbd_cdc_interface.o
                0x0000000020003e70                BuffLength
                0x0000000020003e74                UartHandle
                0x0000000020003ee0                UserRxBuffer
                0x00000000200046e0                TimHandle
                0x000000002000471c                . = ALIGN (0x4)
                0x000000002000471c                _ebss = .
                0x000000002000471c                __bss_end__ = _ebss

._user_heap_stack
                0x000000002000471c      0x600
                0x000000002000471c                . = ALIGN (0x4)
                0x000000002000471c                PROVIDE (end, .)
                [!provide]                        PROVIDE (_end, .)
                0x000000002000491c                . = (. + _Min_Heap_Size)
 *fill*         0x000000002000471c      0x200 
                0x0000000020004d1c                . = (. + _Min_Stack_Size)
 *fill*         0x000000002000491c      0x400 
                0x0000000020004d1c                . = ALIGN (0x4)

/DISCARD/
 libc.a(*)
 libm.a(*)
 libgcc.a(*)

.ARM.attributes
                0x0000000000000000       0x30
 *(.ARM.attributes)
 .ARM.attributes
                0x0000000000000000       0x22 /usr/lib/gcc/arm-none-eabi/4.9.3/armv7e-m/fpu/crti.o
 .ARM.attributes
                0x0000000000000022       0x34 /usr/lib/gcc/arm-none-eabi/4.9.3/armv7e-m/fpu/crtbegin.o
 .ARM.attributes
                0x0000000000000056       0x39 build/main.o
 .ARM.attributes
                0x000000000000008f       0x20 build/mycode.o
 .ARM.attributes
                0x00000000000000af       0x39 build/mytest.o
 .ARM.attributes
                0x00000000000000e8       0x39 build/simple_task.o
 .ARM.attributes
                0x0000000000000121       0x39 build/task_executive1.o
 .ARM.attributes
                0x000000000000015a       0x39 build/task_test1.o
 .ARM.attributes
                0x0000000000000193       0x39 build/monitor.o
 .ARM.attributes
                0x00000000000001cc       0x39 build/parser.o
 .ARM.attributes
                0x0000000000000205       0x39 build/dump.o
 .ARM.attributes
                0x000000000000023e       0x39 build/syscall.o
 .ARM.attributes
                0x0000000000000277       0x39 build/terminal.o
 .ARM.attributes
                0x00000000000002b0       0x39 build/decoder/decoder.o
 .ARM.attributes
                0x00000000000002e9       0x39 build/decoder/STM32F30x_decoder.o
 .ARM.attributes
                0x0000000000000322       0x39 build/Drivers/CMSIS/Device/ST/STM32F3xx/Source/Templates/system_stm32f3xx.o
 .ARM.attributes
                0x000000000000035b       0x39 build/Drivers/STM32F3xx_HAL_Driver/Src/stm32f3xx_hal_rcc.o
 .ARM.attributes
                0x0000000000000394       0x39 build/Drivers/STM32F3xx_HAL_Driver/Src/stm32f3xx_hal.o
 .ARM.attributes
                0x00000000000003cd       0x39 build/Drivers/STM32F3xx_HAL_Driver/Src/stm32f3xx_hal_cortex.o
 .ARM.attributes
                0x0000000000000406       0x39 build/Drivers/STM32F3xx_HAL_Driver/Src/stm32f3xx_hal_gpio.o
 .ARM.attributes
                0x000000000000043f       0x39 build/Drivers/STM32F3xx_HAL_Driver/Src/stm32f3xx_hal_pcd.o
 .ARM.attributes
                0x0000000000000478       0x39 build/Drivers/STM32F3xx_HAL_Driver/Src/stm32f3xx_hal_pcd_ex.o
 .ARM.attributes
                0x00000000000004b1       0x39 build/Drivers/STM32F3xx_HAL_Driver/Src/stm32f3xx_hal_i2c.o
 .ARM.attributes
                0x00000000000004ea       0x39 build/Drivers/STM32F3xx_HAL_Driver/Src/stm32f3xx_hal_spi.o
 .ARM.attributes
                0x0000000000000523       0x39 build/Drivers/STM32_USB_Device_Library/Core/Src/usbd_core.o
 .ARM.attributes
                0x000000000000055c       0x39 build/Drivers/STM32_USB_Device_Library/Core/Src/usbd_ctlreq.o
 .ARM.attributes
                0x0000000000000595       0x39 build/Drivers/STM32_USB_Device_Library/Core/Src/usbd_ioreq.o
 .ARM.attributes
                0x00000000000005ce       0x39 build/Drivers/STM32_USB_Device_Library/Class/CDC/Src/usbd_cdc.o
 .ARM.attributes
                0x0000000000000607       0x39 build/usbd_conf.o
 .ARM.attributes
                0x0000000000000640       0x39 build/usbd_desc.o
 .ARM.attributes
                0x0000000000000679       0x39 build/usbd_cdc_interface.o
 .ARM.attributes
                0x00000000000006b2       0x39 build/Drivers/BSP/STM32F3-Discovery/stm32f3_discovery.o
 .ARM.attributes
                0x00000000000006eb       0x39 build/Drivers/BSP/STM32F3-Discovery/stm32f3_discovery_accelerometer.o
 .ARM.attributes
                0x0000000000000724       0x39 build/Drivers/BSP/STM32F3-Discovery/stm32f3_discovery_gyroscope.o
 .ARM.attributes
                0x000000000000075d       0x39 build/Drivers/BSP/Components/lsm303dlhc/lsm303dlhc.o
 .ARM.attributes
                0x0000000000000796       0x39 build/Drivers/BSP/Components/l3gd20/l3gd20.o
 .ARM.attributes
                0x00000000000007cf       0x21 build/Drivers/CMSIS/Device/ST/STM32F3xx/Source/Templates/gcc/startup_stm32f303xc.o
 .ARM.attributes
                0x00000000000007f0       0x34 /usr/lib/gcc/arm-none-eabi/4.9.3/../../../arm-none-eabi/lib/armv7e-m/fpu/libg.a(lib_a-atexit.o)
 .ARM.attributes
                0x0000000000000824       0x34 /usr/lib/gcc/arm-none-eabi/4.9.3/../../../arm-none-eabi/lib/armv7e-m/fpu/libg.a(lib_a-ctype_.o)
 .ARM.attributes
                0x0000000000000858       0x34 /usr/lib/gcc/arm-none-eabi/4.9.3/../../../arm-none-eabi/lib/armv7e-m/fpu/libg.a(lib_a-errno.o)
 .ARM.attributes
                0x000000000000088c       0x34 /usr/lib/gcc/arm-none-eabi/4.9.3/../../../arm-none-eabi/lib/armv7e-m/fpu/libg.a(lib_a-fini.o)
 .ARM.attributes
                0x00000000000008c0       0x34 /usr/lib/gcc/arm-none-eabi/4.9.3/../../../arm-none-eabi/lib/armv7e-m/fpu/libg.a(lib_a-impure.o)
 .ARM.attributes
                0x00000000000008f4       0x34 /usr/lib/gcc/arm-none-eabi/4.9.3/../../../arm-none-eabi/lib/armv7e-m/fpu/libg.a(lib_a-init.o)
 .ARM.attributes
                0x0000000000000928       0x34 /usr/lib/gcc/arm-none-eabi/4.9.3/../../../arm-none-eabi/lib/armv7e-m/fpu/libg.a(lib_a-memset.o)
 .ARM.attributes
                0x000000000000095c       0x34 /usr/lib/gcc/arm-none-eabi/4.9.3/../../../arm-none-eabi/lib/armv7e-m/fpu/libg.a(lib_a-printf.o)
 .ARM.attributes
                0x0000000000000990       0x34 /usr/lib/gcc/arm-none-eabi/4.9.3/../../../arm-none-eabi/lib/armv7e-m/fpu/libg.a(lib_a-putchar.o)
 .ARM.attributes
                0x00000000000009c4       0x34 /usr/lib/gcc/arm-none-eabi/4.9.3/../../../arm-none-eabi/lib/armv7e-m/fpu/libg.a(lib_a-puts.o)
 .ARM.attributes
                0x00000000000009f8       0x34 /usr/lib/gcc/arm-none-eabi/4.9.3/../../../arm-none-eabi/lib/armv7e-m/fpu/libg.a(lib_a-setvbuf.o)
 .ARM.attributes
                0x0000000000000a2c       0x34 /usr/lib/gcc/arm-none-eabi/4.9.3/../../../arm-none-eabi/lib/armv7e-m/fpu/libg.a(lib_a-strcasecmp.o)
 .ARM.attributes
                0x0000000000000a60       0x34 /usr/lib/gcc/arm-none-eabi/4.9.3/../../../arm-none-eabi/lib/armv7e-m/fpu/libg.a(lib_a-strcpy.o)
 .ARM.attributes
                0x0000000000000a94       0x34 /usr/lib/gcc/arm-none-eabi/4.9.3/../../../arm-none-eabi/lib/armv7e-m/fpu/libg.a(lib_a-strlen.o)
 .ARM.attributes
                0x0000000000000ac8       0x34 /usr/lib/gcc/arm-none-eabi/4.9.3/../../../arm-none-eabi/lib/armv7e-m/fpu/libg.a(lib_a-strtok.o)
 .ARM.attributes
                0x0000000000000afc       0x34 /usr/lib/gcc/arm-none-eabi/4.9.3/../../../arm-none-eabi/lib/armv7e-m/fpu/libg.a(lib_a-strtok_r.o)
 .ARM.attributes
                0x0000000000000b30       0x34 /usr/lib/gcc/arm-none-eabi/4.9.3/../../../arm-none-eabi/lib/armv7e-m/fpu/libg.a(lib_a-strtoul.o)
 .ARM.attributes
                0x0000000000000b64       0x34 /usr/lib/gcc/arm-none-eabi/4.9.3/../../../arm-none-eabi/lib/armv7e-m/fpu/libg.a(lib_a-vfprintf.o)
 .ARM.attributes
                0x0000000000000b98       0x34 /usr/lib/gcc/arm-none-eabi/4.9.3/../../../arm-none-eabi/lib/armv7e-m/fpu/libg.a(lib_a-wsetup.o)
 .ARM.attributes
                0x0000000000000bcc       0x34 /usr/lib/gcc/arm-none-eabi/4.9.3/../../../arm-none-eabi/lib/armv7e-m/fpu/libg.a(lib_a-__atexit.o)
 .ARM.attributes
                0x0000000000000c00       0x34 /usr/lib/gcc/arm-none-eabi/4.9.3/../../../arm-none-eabi/lib/armv7e-m/fpu/libg.a(lib_a-__call_atexit.o)
 .ARM.attributes
                0x0000000000000c34       0x34 /usr/lib/gcc/arm-none-eabi/4.9.3/../../../arm-none-eabi/lib/armv7e-m/fpu/libg.a(lib_a-dtoa.o)
 .ARM.attributes
                0x0000000000000c68       0x34 /usr/lib/gcc/arm-none-eabi/4.9.3/../../../arm-none-eabi/lib/armv7e-m/fpu/libg.a(lib_a-fflush.o)
 .ARM.attributes
                0x0000000000000c9c       0x34 /usr/lib/gcc/arm-none-eabi/4.9.3/../../../arm-none-eabi/lib/armv7e-m/fpu/libg.a(lib_a-findfp.o)
 .ARM.attributes
                0x0000000000000cd0       0x34 /usr/lib/gcc/arm-none-eabi/4.9.3/../../../arm-none-eabi/lib/armv7e-m/fpu/libg.a(lib_a-freer.o)
 .ARM.attributes
                0x0000000000000d04       0x34 /usr/lib/gcc/arm-none-eabi/4.9.3/../../../arm-none-eabi/lib/armv7e-m/fpu/libg.a(lib_a-fvwrite.o)
 .ARM.attributes
                0x0000000000000d38       0x34 /usr/lib/gcc/arm-none-eabi/4.9.3/../../../arm-none-eabi/lib/armv7e-m/fpu/libg.a(lib_a-fwalk.o)
 .ARM.attributes
                0x0000000000000d6c       0x34 /usr/lib/gcc/arm-none-eabi/4.9.3/../../../arm-none-eabi/lib/armv7e-m/fpu/libg.a(lib_a-locale.o)
 .ARM.attributes
                0x0000000000000da0       0x34 /usr/lib/gcc/arm-none-eabi/4.9.3/../../../arm-none-eabi/lib/armv7e-m/fpu/libg.a(lib_a-makebuf.o)
 .ARM.attributes
                0x0000000000000dd4       0x34 /usr/lib/gcc/arm-none-eabi/4.9.3/../../../arm-none-eabi/lib/armv7e-m/fpu/libg.a(lib_a-malloc.o)
 .ARM.attributes
                0x0000000000000e08       0x34 /usr/lib/gcc/arm-none-eabi/4.9.3/../../../arm-none-eabi/lib/armv7e-m/fpu/libg.a(lib_a-mallocr.o)
 .ARM.attributes
                0x0000000000000e3c       0x34 /usr/lib/gcc/arm-none-eabi/4.9.3/../../../arm-none-eabi/lib/armv7e-m/fpu/libg.a(lib_a-memchr.o)
 .ARM.attributes
                0x0000000000000e70       0x20 /usr/lib/gcc/arm-none-eabi/4.9.3/../../../arm-none-eabi/lib/armv7e-m/fpu/libg.a(lib_a-memcpy.o)
 .ARM.attributes
                0x0000000000000e90       0x34 /usr/lib/gcc/arm-none-eabi/4.9.3/../../../arm-none-eabi/lib/armv7e-m/fpu/libg.a(lib_a-memmove.o)
 .ARM.attributes
                0x0000000000000ec4       0x34 /usr/lib/gcc/arm-none-eabi/4.9.3/../../../arm-none-eabi/lib/armv7e-m/fpu/libg.a(lib_a-mlock.o)
 .ARM.attributes
                0x0000000000000ef8       0x34 /usr/lib/gcc/arm-none-eabi/4.9.3/../../../arm-none-eabi/lib/armv7e-m/fpu/libg.a(lib_a-mprec.o)
 .ARM.attributes
                0x0000000000000f2c       0x34 /usr/lib/gcc/arm-none-eabi/4.9.3/../../../arm-none-eabi/lib/armv7e-m/fpu/libg.a(lib_a-putc.o)
 .ARM.attributes
                0x0000000000000f60       0x34 /usr/lib/gcc/arm-none-eabi/4.9.3/../../../arm-none-eabi/lib/armv7e-m/fpu/libg.a(lib_a-reallocr.o)
 .ARM.attributes
                0x0000000000000f94       0x34 /usr/lib/gcc/arm-none-eabi/4.9.3/../../../arm-none-eabi/lib/armv7e-m/fpu/libg.a(lib_a-s_fpclassify.o)
 .ARM.attributes
                0x0000000000000fc8       0x34 /usr/lib/gcc/arm-none-eabi/4.9.3/../../../arm-none-eabi/lib/armv7e-m/fpu/libg.a(lib_a-stdio.o)
 .ARM.attributes
                0x0000000000000ffc       0x34 /usr/lib/gcc/arm-none-eabi/4.9.3/../../../arm-none-eabi/lib/armv7e-m/fpu/libg.a(lib_a-vfiprintf.o)
 .ARM.attributes
                0x0000000000001030       0x34 /usr/lib/gcc/arm-none-eabi/4.9.3/../../../arm-none-eabi/lib/armv7e-m/fpu/libg.a(lib_a-wbuf.o)
 .ARM.attributes
                0x0000000000001064       0x34 /usr/lib/gcc/arm-none-eabi/4.9.3/../../../arm-none-eabi/lib/armv7e-m/fpu/libg.a(lib_a-callocr.o)
 .ARM.attributes
                0x0000000000001098       0x34 /usr/lib/gcc/arm-none-eabi/4.9.3/../../../arm-none-eabi/lib/armv7e-m/fpu/libg.a(lib_a-fclose.o)
 .ARM.attributes
                0x00000000000010cc       0x34 /usr/lib/gcc/arm-none-eabi/4.9.3/../../../arm-none-eabi/lib/armv7e-m/fpu/libg.a(lib_a-fputwc.o)
 .ARM.attributes
                0x0000000000001100       0x34 /usr/lib/gcc/arm-none-eabi/4.9.3/../../../arm-none-eabi/lib/armv7e-m/fpu/libg.a(lib_a-wcrtomb.o)
 .ARM.attributes
                0x0000000000001134       0x34 /usr/lib/gcc/arm-none-eabi/4.9.3/../../../arm-none-eabi/lib/armv7e-m/fpu/libg.a(lib_a-wctomb_r.o)
 .ARM.attributes
                0x0000000000001168       0x22 /usr/lib/gcc/arm-none-eabi/4.9.3/armv7e-m/fpu/libgcc.a(_arm_addsubdf3.o)
 .ARM.attributes
                0x000000000000118a       0x22 /usr/lib/gcc/arm-none-eabi/4.9.3/armv7e-m/fpu/libgcc.a(_arm_muldivdf3.o)
 .ARM.attributes
                0x00000000000011ac       0x22 /usr/lib/gcc/arm-none-eabi/4.9.3/armv7e-m/fpu/libgcc.a(_arm_cmpdf2.o)
 .ARM.attributes
                0x00000000000011ce       0x22 /usr/lib/gcc/arm-none-eabi/4.9.3/armv7e-m/fpu/libgcc.a(_arm_fixdfsi.o)
 .ARM.attributes
                0x00000000000011f0       0x22 /usr/lib/gcc/arm-none-eabi/4.9.3/armv7e-m/fpu/libgcc.a(_aeabi_uldivmod.o)
 .ARM.attributes
                0x0000000000001212       0x34 /usr/lib/gcc/arm-none-eabi/4.9.3/armv7e-m/fpu/libgcc.a(bpabi.o)
 .ARM.attributes
                0x0000000000001246       0x22 /usr/lib/gcc/arm-none-eabi/4.9.3/armv7e-m/fpu/libgcc.a(_dvmd_tls.o)
 .ARM.attributes
                0x0000000000001268       0x34 /usr/lib/gcc/arm-none-eabi/4.9.3/armv7e-m/fpu/libgcc.a(_divdi3.o)
 .ARM.attributes
                0x000000000000129c       0x34 /usr/lib/gcc/arm-none-eabi/4.9.3/armv7e-m/fpu/libgcc.a(_udivdi3.o)
 .ARM.attributes
                0x00000000000012d0       0x34 /usr/lib/gcc/arm-none-eabi/4.9.3/armv7e-m/fpu/crtend.o
 .ARM.attributes
                0x0000000000001304       0x22 /usr/lib/gcc/arm-none-eabi/4.9.3/armv7e-m/fpu/crtn.o

.parsetable     0x000000000801bc10       0xb4
                0x000000000801bc10                . = ALIGN (0x4)
                0x000000000801bc10                _parsetable_start = .
 *(SORT(.parsetable.*))
 .parsetable.accel
                0x000000000801bc10        0xc build/main.o
                0x000000000801bc10                CmdAccelE
 .parsetable.button
                0x000000000801bc1c        0xc build/main.o
                0x000000000801bc1c                CmdButtonE
 .parsetable.cmdtest
                0x000000000801bc28        0xc build/mytest.o
                0x000000000801bc28                CmdTestE
 .parsetable.count
                0x000000000801bc34        0xc build/simple_task.o
                0x000000000801bc34                CmdCountE
 .parsetable.d  0x000000000801bc40        0xc build/dump.o
                0x000000000801bc40                CmdDumpE
 .parsetable.decode
                0x000000000801bc4c        0xc build/decoder/decoder.o
                0x000000000801bc4c                CmdDecodeE
 .parsetable.gyro
                0x000000000801bc58        0xc build/main.o
                0x000000000801bc58                CmdGyroE
 .parsetable.led
                0x000000000801bc64        0xc build/main.o
                0x000000000801bc64                CmdLEDE
 .parsetable.r  0x000000000801bc70        0xc build/monitor.o
                0x000000000801bc70                CmdRE
 .parsetable.taskadd
                0x000000000801bc7c        0xc build/task_test1.o
                0x000000000801bc7c                CmdTaskaddE
 .parsetable.taskinit
                0x000000000801bc88        0xc build/task_test1.o
                0x000000000801bc88                CmdTaskinitE
 .parsetable.taskswitcher
                0x000000000801bc94        0xc build/task_test1.o
                0x000000000801bc94                CmdTaskswitcherE
 .parsetable.termstat
                0x000000000801bca0        0xc build/terminal.o
                0x000000000801bca0                CmdStatsE
 .parsetable.w  0x000000000801bcac        0xc build/monitor.o
                0x000000000801bcac                CmdWE
                0x000000000801bcb8        0x4 LONG 0x0
                0x000000000801bcbc        0x4 LONG 0x0
                0x000000000801bcc0        0x4 LONG 0x0
                0x000000000801bcc4                _parsetable_end = .
                0x000000000801bcc4                . = ALIGN (0x4)
OUTPUT(simple_monitor.elf elf32-littlearm)

.rel.dyn        0x000000000801bcc4        0x0
 .rel.iplt      0x000000000801bcc4        0x0 /usr/lib/gcc/arm-none-eabi/4.9.3/armv7e-m/fpu/crtbegin.o

.comment        0x0000000000000000       0x70
 .comment       0x0000000000000000       0x38 /usr/lib/gcc/arm-none-eabi/4.9.3/armv7e-m/fpu/crtbegin.o
                                         0x39 (size before relaxing)
 .comment       0x0000000000000038       0x39 build/main.o
 .comment       0x0000000000000038       0x39 build/mytest.o
 .comment       0x0000000000000038       0x39 build/simple_task.o
 .comment       0x0000000000000038       0x39 build/task_executive1.o
 .comment       0x0000000000000038       0x39 build/task_test1.o
 .comment       0x0000000000000038       0x39 build/monitor.o
 .comment       0x0000000000000038       0x39 build/parser.o
 .comment       0x0000000000000038       0x39 build/dump.o
 .comment       0x0000000000000038       0x39 build/syscall.o
 .comment       0x0000000000000038       0x39 build/terminal.o
 .comment       0x0000000000000038       0x39 build/decoder/decoder.o
 .comment       0x0000000000000038       0x39 build/decoder/STM32F30x_decoder.o
 .comment       0x0000000000000038       0x39 build/Drivers/CMSIS/Device/ST/STM32F3xx/Source/Templates/system_stm32f3xx.o
 .comment       0x0000000000000038       0x39 build/Drivers/STM32F3xx_HAL_Driver/Src/stm32f3xx_hal_rcc.o
 .comment       0x0000000000000038       0x39 build/Drivers/STM32F3xx_HAL_Driver/Src/stm32f3xx_hal.o
 .comment       0x0000000000000038       0x39 build/Drivers/STM32F3xx_HAL_Driver/Src/stm32f3xx_hal_cortex.o
 .comment       0x0000000000000038       0x39 build/Drivers/STM32F3xx_HAL_Driver/Src/stm32f3xx_hal_gpio.o
 .comment       0x0000000000000038       0x39 build/Drivers/STM32F3xx_HAL_Driver/Src/stm32f3xx_hal_pcd.o
 .comment       0x0000000000000038       0x39 build/Drivers/STM32F3xx_HAL_Driver/Src/stm32f3xx_hal_pcd_ex.o
 .comment       0x0000000000000038       0x39 build/Drivers/STM32F3xx_HAL_Driver/Src/stm32f3xx_hal_i2c.o
 .comment       0x0000000000000038       0x39 build/Drivers/STM32F3xx_HAL_Driver/Src/stm32f3xx_hal_spi.o
 .comment       0x0000000000000038       0x39 build/Drivers/STM32_USB_Device_Library/Core/Src/usbd_core.o
 .comment       0x0000000000000038       0x39 build/Drivers/STM32_USB_Device_Library/Core/Src/usbd_ctlreq.o
 .comment       0x0000000000000038       0x39 build/Drivers/STM32_USB_Device_Library/Core/Src/usbd_ioreq.o
 .comment       0x0000000000000038       0x39 build/Drivers/STM32_USB_Device_Library/Class/CDC/Src/usbd_cdc.o
 .comment       0x0000000000000038       0x39 build/usbd_conf.o
 .comment       0x0000000000000038       0x39 build/usbd_desc.o
 .comment       0x0000000000000038       0x39 build/usbd_cdc_interface.o
 .comment       0x0000000000000038       0x39 build/Drivers/BSP/STM32F3-Discovery/stm32f3_discovery.o
 .comment       0x0000000000000038       0x39 build/Drivers/BSP/STM32F3-Discovery/stm32f3_discovery_accelerometer.o
 .comment       0x0000000000000038       0x39 build/Drivers/BSP/STM32F3-Discovery/stm32f3_discovery_gyroscope.o
 .comment       0x0000000000000038       0x39 build/Drivers/BSP/Components/lsm303dlhc/lsm303dlhc.o
 .comment       0x0000000000000038       0x39 build/Drivers/BSP/Components/l3gd20/l3gd20.o
 .comment       0x0000000000000038       0x38 /usr/lib/gcc/arm-none-eabi/4.9.3/../../../arm-none-eabi/lib/armv7e-m/fpu/libg.a(lib_a-atexit.o)
                                         0x39 (size before relaxing)
 .comment       0x0000000000000070       0x39 /usr/lib/gcc/arm-none-eabi/4.9.3/../../../arm-none-eabi/lib/armv7e-m/fpu/libg.a(lib_a-ctype_.o)
 .comment       0x0000000000000070       0x39 /usr/lib/gcc/arm-none-eabi/4.9.3/../../../arm-none-eabi/lib/armv7e-m/fpu/libg.a(lib_a-errno.o)
 .comment       0x0000000000000070       0x39 /usr/lib/gcc/arm-none-eabi/4.9.3/../../../arm-none-eabi/lib/armv7e-m/fpu/libg.a(lib_a-fini.o)
 .comment       0x0000000000000070       0x39 /usr/lib/gcc/arm-none-eabi/4.9.3/../../../arm-none-eabi/lib/armv7e-m/fpu/libg.a(lib_a-impure.o)
 .comment       0x0000000000000070       0x39 /usr/lib/gcc/arm-none-eabi/4.9.3/../../../arm-none-eabi/lib/armv7e-m/fpu/libg.a(lib_a-init.o)
 .comment       0x0000000000000070       0x39 /usr/lib/gcc/arm-none-eabi/4.9.3/../../../arm-none-eabi/lib/armv7e-m/fpu/libg.a(lib_a-memset.o)
 .comment       0x0000000000000070       0x39 /usr/lib/gcc/arm-none-eabi/4.9.3/../../../arm-none-eabi/lib/armv7e-m/fpu/libg.a(lib_a-printf.o)
 .comment       0x0000000000000070       0x39 /usr/lib/gcc/arm-none-eabi/4.9.3/../../../arm-none-eabi/lib/armv7e-m/fpu/libg.a(lib_a-putchar.o)
 .comment       0x0000000000000070       0x39 /usr/lib/gcc/arm-none-eabi/4.9.3/../../../arm-none-eabi/lib/armv7e-m/fpu/libg.a(lib_a-puts.o)
 .comment       0x0000000000000070       0x39 /usr/lib/gcc/arm-none-eabi/4.9.3/../../../arm-none-eabi/lib/armv7e-m/fpu/libg.a(lib_a-setvbuf.o)
 .comment       0x0000000000000070       0x39 /usr/lib/gcc/arm-none-eabi/4.9.3/../../../arm-none-eabi/lib/armv7e-m/fpu/libg.a(lib_a-strcasecmp.o)
 .comment       0x0000000000000070       0x39 /usr/lib/gcc/arm-none-eabi/4.9.3/../../../arm-none-eabi/lib/armv7e-m/fpu/libg.a(lib_a-strcpy.o)
 .comment       0x0000000000000070       0x39 /usr/lib/gcc/arm-none-eabi/4.9.3/../../../arm-none-eabi/lib/armv7e-m/fpu/libg.a(lib_a-strlen.o)
 .comment       0x0000000000000070       0x39 /usr/lib/gcc/arm-none-eabi/4.9.3/../../../arm-none-eabi/lib/armv7e-m/fpu/libg.a(lib_a-strtok.o)
 .comment       0x0000000000000070       0x39 /usr/lib/gcc/arm-none-eabi/4.9.3/../../../arm-none-eabi/lib/armv7e-m/fpu/libg.a(lib_a-strtok_r.o)
 .comment       0x0000000000000070       0x39 /usr/lib/gcc/arm-none-eabi/4.9.3/../../../arm-none-eabi/lib/armv7e-m/fpu/libg.a(lib_a-strtoul.o)
 .comment       0x0000000000000070       0x39 /usr/lib/gcc/arm-none-eabi/4.9.3/../../../arm-none-eabi/lib/armv7e-m/fpu/libg.a(lib_a-vfprintf.o)
 .comment       0x0000000000000070       0x39 /usr/lib/gcc/arm-none-eabi/4.9.3/../../../arm-none-eabi/lib/armv7e-m/fpu/libg.a(lib_a-wsetup.o)
 .comment       0x0000000000000070       0x39 /usr/lib/gcc/arm-none-eabi/4.9.3/../../../arm-none-eabi/lib/armv7e-m/fpu/libg.a(lib_a-__atexit.o)
 .comment       0x0000000000000070       0x39 /usr/lib/gcc/arm-none-eabi/4.9.3/../../../arm-none-eabi/lib/armv7e-m/fpu/libg.a(lib_a-__call_atexit.o)
 .comment       0x0000000000000070       0x39 /usr/lib/gcc/arm-none-eabi/4.9.3/../../../arm-none-eabi/lib/armv7e-m/fpu/libg.a(lib_a-dtoa.o)
 .comment       0x0000000000000070       0x39 /usr/lib/gcc/arm-none-eabi/4.9.3/../../../arm-none-eabi/lib/armv7e-m/fpu/libg.a(lib_a-fflush.o)
 .comment       0x0000000000000070       0x39 /usr/lib/gcc/arm-none-eabi/4.9.3/../../../arm-none-eabi/lib/armv7e-m/fpu/libg.a(lib_a-findfp.o)
 .comment       0x0000000000000070       0x39 /usr/lib/gcc/arm-none-eabi/4.9.3/../../../arm-none-eabi/lib/armv7e-m/fpu/libg.a(lib_a-freer.o)
 .comment       0x0000000000000070       0x39 /usr/lib/gcc/arm-none-eabi/4.9.3/../../../arm-none-eabi/lib/armv7e-m/fpu/libg.a(lib_a-fvwrite.o)
 .comment       0x0000000000000070       0x39 /usr/lib/gcc/arm-none-eabi/4.9.3/../../../arm-none-eabi/lib/armv7e-m/fpu/libg.a(lib_a-fwalk.o)
 .comment       0x0000000000000070       0x39 /usr/lib/gcc/arm-none-eabi/4.9.3/../../../arm-none-eabi/lib/armv7e-m/fpu/libg.a(lib_a-locale.o)
 .comment       0x0000000000000070       0x39 /usr/lib/gcc/arm-none-eabi/4.9.3/../../../arm-none-eabi/lib/armv7e-m/fpu/libg.a(lib_a-makebuf.o)
 .comment       0x0000000000000070       0x39 /usr/lib/gcc/arm-none-eabi/4.9.3/../../../arm-none-eabi/lib/armv7e-m/fpu/libg.a(lib_a-malloc.o)
 .comment       0x0000000000000070       0x39 /usr/lib/gcc/arm-none-eabi/4.9.3/../../../arm-none-eabi/lib/armv7e-m/fpu/libg.a(lib_a-mallocr.o)
 .comment       0x0000000000000070       0x39 /usr/lib/gcc/arm-none-eabi/4.9.3/../../../arm-none-eabi/lib/armv7e-m/fpu/libg.a(lib_a-memchr.o)
 .comment       0x0000000000000070       0x39 /usr/lib/gcc/arm-none-eabi/4.9.3/../../../arm-none-eabi/lib/armv7e-m/fpu/libg.a(lib_a-memmove.o)
 .comment       0x0000000000000070       0x39 /usr/lib/gcc/arm-none-eabi/4.9.3/../../../arm-none-eabi/lib/armv7e-m/fpu/libg.a(lib_a-mlock.o)
 .comment       0x0000000000000070       0x39 /usr/lib/gcc/arm-none-eabi/4.9.3/../../../arm-none-eabi/lib/armv7e-m/fpu/libg.a(lib_a-mprec.o)
 .comment       0x0000000000000070       0x39 /usr/lib/gcc/arm-none-eabi/4.9.3/../../../arm-none-eabi/lib/armv7e-m/fpu/libg.a(lib_a-putc.o)
 .comment       0x0000000000000070       0x39 /usr/lib/gcc/arm-none-eabi/4.9.3/../../../arm-none-eabi/lib/armv7e-m/fpu/libg.a(lib_a-reallocr.o)
 .comment       0x0000000000000070       0x39 /usr/lib/gcc/arm-none-eabi/4.9.3/../../../arm-none-eabi/lib/armv7e-m/fpu/libg.a(lib_a-s_fpclassify.o)
 .comment       0x0000000000000070       0x39 /usr/lib/gcc/arm-none-eabi/4.9.3/../../../arm-none-eabi/lib/armv7e-m/fpu/libg.a(lib_a-stdio.o)
 .comment       0x0000000000000070       0x39 /usr/lib/gcc/arm-none-eabi/4.9.3/../../../arm-none-eabi/lib/armv7e-m/fpu/libg.a(lib_a-vfiprintf.o)
 .comment       0x0000000000000070       0x39 /usr/lib/gcc/arm-none-eabi/4.9.3/../../../arm-none-eabi/lib/armv7e-m/fpu/libg.a(lib_a-wbuf.o)
 .comment       0x0000000000000070       0x39 /usr/lib/gcc/arm-none-eabi/4.9.3/../../../arm-none-eabi/lib/armv7e-m/fpu/libg.a(lib_a-callocr.o)
 .comment       0x0000000000000070       0x39 /usr/lib/gcc/arm-none-eabi/4.9.3/../../../arm-none-eabi/lib/armv7e-m/fpu/libg.a(lib_a-fclose.o)
 .comment       0x0000000000000070       0x39 /usr/lib/gcc/arm-none-eabi/4.9.3/../../../arm-none-eabi/lib/armv7e-m/fpu/libg.a(lib_a-fputwc.o)
 .comment       0x0000000000000070       0x39 /usr/lib/gcc/arm-none-eabi/4.9.3/../../../arm-none-eabi/lib/armv7e-m/fpu/libg.a(lib_a-wcrtomb.o)
 .comment       0x0000000000000070       0x39 /usr/lib/gcc/arm-none-eabi/4.9.3/../../../arm-none-eabi/lib/armv7e-m/fpu/libg.a(lib_a-wctomb_r.o)
 .comment       0x0000000000000070       0x39 /usr/lib/gcc/arm-none-eabi/4.9.3/armv7e-m/fpu/libgcc.a(bpabi.o)
 .comment       0x0000000000000070       0x39 /usr/lib/gcc/arm-none-eabi/4.9.3/armv7e-m/fpu/libgcc.a(_divdi3.o)
 .comment       0x0000000000000070       0x39 /usr/lib/gcc/arm-none-eabi/4.9.3/armv7e-m/fpu/libgcc.a(_udivdi3.o)
 .comment       0x0000000000000070       0x39 /usr/lib/gcc/arm-none-eabi/4.9.3/armv7e-m/fpu/crtend.o

.debug_info     0x0000000000000000    0x3565e
 .debug_info    0x0000000000000000      0x948 build/main.o
 .debug_info    0x0000000000000948       0x4f build/mycode.o
 .debug_info    0x0000000000000997      0x1ac build/mytest.o
 .debug_info    0x0000000000000b43      0x1c6 build/simple_task.o
 .debug_info    0x0000000000000d09      0x44d build/task_executive1.o
 .debug_info    0x0000000000001156      0x419 build/task_test1.o
 .debug_info    0x000000000000156f      0x275 build/monitor.o
 .debug_info    0x00000000000017e4      0x652 build/parser.o
 .debug_info    0x0000000000001e36      0x401 build/dump.o
 .debug_info    0x0000000000002237      0xb6a build/syscall.o
 .debug_info    0x0000000000002da1     0x1b08 build/terminal.o
 .debug_info    0x00000000000048a9      0xa08 build/decoder/decoder.o
 .debug_info    0x00000000000052b1     0x3878 build/decoder/STM32F30x_decoder.o
 .debug_info    0x0000000000008b29      0x3b7 build/Drivers/CMSIS/Device/ST/STM32F3xx/Source/Templates/system_stm32f3xx.o
 .debug_info    0x0000000000008ee0     0x231b build/Drivers/STM32F3xx_HAL_Driver/Src/stm32f3xx_hal_rcc.o
 .debug_info    0x000000000000b1fb      0x715 build/Drivers/STM32F3xx_HAL_Driver/Src/stm32f3xx_hal.o
 .debug_info    0x000000000000b910      0xc64 build/Drivers/STM32F3xx_HAL_Driver/Src/stm32f3xx_hal_cortex.o
 .debug_info    0x000000000000c574      0x673 build/Drivers/STM32F3xx_HAL_Driver/Src/stm32f3xx_hal_gpio.o
 .debug_info    0x000000000000cbe7     0x11cb build/Drivers/STM32F3xx_HAL_Driver/Src/stm32f3xx_hal_pcd.o
 .debug_info    0x000000000000ddb2      0x676 build/Drivers/STM32F3xx_HAL_Driver/Src/stm32f3xx_hal_pcd_ex.o
 .debug_info    0x000000000000e428     0x2339 build/Drivers/STM32F3xx_HAL_Driver/Src/stm32f3xx_hal_i2c.o
 .debug_info    0x0000000000010761     0x1754 build/Drivers/STM32F3xx_HAL_Driver/Src/stm32f3xx_hal_spi.o
 .debug_info    0x0000000000011eb5      0xc9d build/Drivers/STM32_USB_Device_Library/Core/Src/usbd_core.o
 .debug_info    0x0000000000012b52      0xbf8 build/Drivers/STM32_USB_Device_Library/Core/Src/usbd_ctlreq.o
 .debug_info    0x000000000001374a      0x78b build/Drivers/STM32_USB_Device_Library/Core/Src/usbd_ioreq.o
 .debug_info    0x0000000000013ed5      0xce3 build/Drivers/STM32_USB_Device_Library/Class/CDC/Src/usbd_cdc.o
 .debug_info    0x0000000000014bb8     0x1829 build/usbd_conf.o
 .debug_info    0x00000000000163e1      0x538 build/usbd_desc.o
 .debug_info    0x0000000000016919      0xf18 build/usbd_cdc_interface.o
 .debug_info    0x0000000000017831     0x17d8 build/Drivers/BSP/STM32F3-Discovery/stm32f3_discovery.o
 .debug_info    0x0000000000019009      0x374 build/Drivers/BSP/STM32F3-Discovery/stm32f3_discovery_accelerometer.o
 .debug_info    0x000000000001937d      0x45a build/Drivers/BSP/STM32F3-Discovery/stm32f3_discovery_gyroscope.o
 .debug_info    0x00000000000197d7      0xb1f build/Drivers/BSP/Components/lsm303dlhc/lsm303dlhc.o
 .debug_info    0x000000000001a2f6      0x6c5 build/Drivers/BSP/Components/l3gd20/l3gd20.o
 .debug_info    0x000000000001a9bb       0x8f build/Drivers/CMSIS/Device/ST/STM32F3xx/Source/Templates/gcc/startup_stm32f303xc.o
 .debug_info    0x000000000001aa4a      0x10a /usr/lib/gcc/arm-none-eabi/4.9.3/../../../arm-none-eabi/lib/armv7e-m/fpu/libg.a(lib_a-atexit.o)
 .debug_info    0x000000000001ab54       0x6f /usr/lib/gcc/arm-none-eabi/4.9.3/../../../arm-none-eabi/lib/armv7e-m/fpu/libg.a(lib_a-ctype_.o)
 .debug_info    0x000000000001abc3      0x889 /usr/lib/gcc/arm-none-eabi/4.9.3/../../../arm-none-eabi/lib/armv7e-m/fpu/libg.a(lib_a-errno.o)
 .debug_info    0x000000000001b44c       0xef /usr/lib/gcc/arm-none-eabi/4.9.3/../../../arm-none-eabi/lib/armv7e-m/fpu/libg.a(lib_a-fini.o)
 .debug_info    0x000000000001b53b      0x894 /usr/lib/gcc/arm-none-eabi/4.9.3/../../../arm-none-eabi/lib/armv7e-m/fpu/libg.a(lib_a-impure.o)
 .debug_info    0x000000000001bdcf      0x105 /usr/lib/gcc/arm-none-eabi/4.9.3/../../../arm-none-eabi/lib/armv7e-m/fpu/libg.a(lib_a-init.o)
 .debug_info    0x000000000001bed4      0x117 /usr/lib/gcc/arm-none-eabi/4.9.3/../../../arm-none-eabi/lib/armv7e-m/fpu/libg.a(lib_a-memset.o)
 .debug_info    0x000000000001bfeb      0x9ab /usr/lib/gcc/arm-none-eabi/4.9.3/../../../arm-none-eabi/lib/armv7e-m/fpu/libg.a(lib_a-printf.o)
 .debug_info    0x000000000001c996      0x935 /usr/lib/gcc/arm-none-eabi/4.9.3/../../../arm-none-eabi/lib/armv7e-m/fpu/libg.a(lib_a-putchar.o)
 .debug_info    0x000000000001d2cb      0xa4e /usr/lib/gcc/arm-none-eabi/4.9.3/../../../arm-none-eabi/lib/armv7e-m/fpu/libg.a(lib_a-puts.o)
 .debug_info    0x000000000001dd19      0x9d3 /usr/lib/gcc/arm-none-eabi/4.9.3/../../../arm-none-eabi/lib/armv7e-m/fpu/libg.a(lib_a-setvbuf.o)
 .debug_info    0x000000000001e6ec      0x155 /usr/lib/gcc/arm-none-eabi/4.9.3/../../../arm-none-eabi/lib/armv7e-m/fpu/libg.a(lib_a-strcasecmp.o)
 .debug_info    0x000000000001e841       0xbd /usr/lib/gcc/arm-none-eabi/4.9.3/../../../arm-none-eabi/lib/armv7e-m/fpu/libg.a(lib_a-strcpy.o)
 .debug_info    0x000000000001e8fe       0xb5 /usr/lib/gcc/arm-none-eabi/4.9.3/../../../arm-none-eabi/lib/armv7e-m/fpu/libg.a(lib_a-strlen.o)
 .debug_info    0x000000000001e9b3      0x8fa /usr/lib/gcc/arm-none-eabi/4.9.3/../../../arm-none-eabi/lib/armv7e-m/fpu/libg.a(lib_a-strtok.o)
 .debug_info    0x000000000001f2ad      0x182 /usr/lib/gcc/arm-none-eabi/4.9.3/../../../arm-none-eabi/lib/armv7e-m/fpu/libg.a(lib_a-strtok_r.o)
 .debug_info    0x000000000001f42f      0x9a7 /usr/lib/gcc/arm-none-eabi/4.9.3/../../../arm-none-eabi/lib/armv7e-m/fpu/libg.a(lib_a-strtoul.o)
 .debug_info    0x000000000001fdd6     0x183c /usr/lib/gcc/arm-none-eabi/4.9.3/../../../arm-none-eabi/lib/armv7e-m/fpu/libg.a(lib_a-vfprintf.o)
 .debug_info    0x0000000000021612      0x93b /usr/lib/gcc/arm-none-eabi/4.9.3/../../../arm-none-eabi/lib/armv7e-m/fpu/libg.a(lib_a-wsetup.o)
 .debug_info    0x0000000000021f4d      0x934 /usr/lib/gcc/arm-none-eabi/4.9.3/../../../arm-none-eabi/lib/armv7e-m/fpu/libg.a(lib_a-__atexit.o)
 .debug_info    0x0000000000022881      0x9a9 /usr/lib/gcc/arm-none-eabi/4.9.3/../../../arm-none-eabi/lib/armv7e-m/fpu/libg.a(lib_a-__call_atexit.o)
 .debug_info    0x000000000002322a     0x134e /usr/lib/gcc/arm-none-eabi/4.9.3/../../../arm-none-eabi/lib/armv7e-m/fpu/libg.a(lib_a-dtoa.o)
 .debug_info    0x0000000000024578      0xab3 /usr/lib/gcc/arm-none-eabi/4.9.3/../../../arm-none-eabi/lib/armv7e-m/fpu/libg.a(lib_a-fflush.o)
 .debug_info    0x000000000002502b      0xdc0 /usr/lib/gcc/arm-none-eabi/4.9.3/../../../arm-none-eabi/lib/armv7e-m/fpu/libg.a(lib_a-findfp.o)
 .debug_info    0x0000000000025deb      0xc1c /usr/lib/gcc/arm-none-eabi/4.9.3/../../../arm-none-eabi/lib/armv7e-m/fpu/libg.a(lib_a-freer.o)
 .debug_info    0x0000000000026a07      0xc63 /usr/lib/gcc/arm-none-eabi/4.9.3/../../../arm-none-eabi/lib/armv7e-m/fpu/libg.a(lib_a-fvwrite.o)
 .debug_info    0x000000000002766a      0x99e /usr/lib/gcc/arm-none-eabi/4.9.3/../../../arm-none-eabi/lib/armv7e-m/fpu/libg.a(lib_a-fwalk.o)
 .debug_info    0x0000000000028008      0xc24 /usr/lib/gcc/arm-none-eabi/4.9.3/../../../arm-none-eabi/lib/armv7e-m/fpu/libg.a(lib_a-locale.o)
 .debug_info    0x0000000000028c2c      0xae6 /usr/lib/gcc/arm-none-eabi/4.9.3/../../../arm-none-eabi/lib/armv7e-m/fpu/libg.a(lib_a-makebuf.o)
 .debug_info    0x0000000000029712      0x915 /usr/lib/gcc/arm-none-eabi/4.9.3/../../../arm-none-eabi/lib/armv7e-m/fpu/libg.a(lib_a-malloc.o)
 .debug_info    0x000000000002a027      0xd8b /usr/lib/gcc/arm-none-eabi/4.9.3/../../../arm-none-eabi/lib/armv7e-m/fpu/libg.a(lib_a-mallocr.o)
 .debug_info    0x000000000002adb2      0x129 /usr/lib/gcc/arm-none-eabi/4.9.3/../../../arm-none-eabi/lib/armv7e-m/fpu/libg.a(lib_a-memchr.o)
 .debug_info    0x000000000002aedb       0xd5 /usr/lib/gcc/arm-none-eabi/4.9.3/../../../arm-none-eabi/lib/armv7e-m/fpu/libg.a(lib_a-memcpy.o)
 .debug_info    0x000000000002afb0      0x131 /usr/lib/gcc/arm-none-eabi/4.9.3/../../../arm-none-eabi/lib/armv7e-m/fpu/libg.a(lib_a-memmove.o)
 .debug_info    0x000000000002b0e1      0x8b4 /usr/lib/gcc/arm-none-eabi/4.9.3/../../../arm-none-eabi/lib/armv7e-m/fpu/libg.a(lib_a-mlock.o)
 .debug_info    0x000000000002b995     0x1684 /usr/lib/gcc/arm-none-eabi/4.9.3/../../../arm-none-eabi/lib/armv7e-m/fpu/libg.a(lib_a-mprec.o)
 .debug_info    0x000000000002d019      0xa06 /usr/lib/gcc/arm-none-eabi/4.9.3/../../../arm-none-eabi/lib/armv7e-m/fpu/libg.a(lib_a-putc.o)
 .debug_info    0x000000000002da1f      0xcbc /usr/lib/gcc/arm-none-eabi/4.9.3/../../../arm-none-eabi/lib/armv7e-m/fpu/libg.a(lib_a-reallocr.o)
 .debug_info    0x000000000002e6db       0xde /usr/lib/gcc/arm-none-eabi/4.9.3/../../../arm-none-eabi/lib/armv7e-m/fpu/libg.a(lib_a-s_fpclassify.o)
 .debug_info    0x000000000002e7b9      0xb8a /usr/lib/gcc/arm-none-eabi/4.9.3/../../../arm-none-eabi/lib/armv7e-m/fpu/libg.a(lib_a-stdio.o)
 .debug_info    0x000000000002f343     0x152f /usr/lib/gcc/arm-none-eabi/4.9.3/../../../arm-none-eabi/lib/armv7e-m/fpu/libg.a(lib_a-vfiprintf.o)
 .debug_info    0x0000000000030872      0x9cc /usr/lib/gcc/arm-none-eabi/4.9.3/../../../arm-none-eabi/lib/armv7e-m/fpu/libg.a(lib_a-wbuf.o)
 .debug_info    0x000000000003123e      0x9e0 /usr/lib/gcc/arm-none-eabi/4.9.3/../../../arm-none-eabi/lib/armv7e-m/fpu/libg.a(lib_a-callocr.o)
 .debug_info    0x0000000000031c1e      0xa28 /usr/lib/gcc/arm-none-eabi/4.9.3/../../../arm-none-eabi/lib/armv7e-m/fpu/libg.a(lib_a-fclose.o)
 .debug_info    0x0000000000032646      0xacc /usr/lib/gcc/arm-none-eabi/4.9.3/../../../arm-none-eabi/lib/armv7e-m/fpu/libg.a(lib_a-fputwc.o)
 .debug_info    0x0000000000033112      0xa75 /usr/lib/gcc/arm-none-eabi/4.9.3/../../../arm-none-eabi/lib/armv7e-m/fpu/libg.a(lib_a-wcrtomb.o)
 .debug_info    0x0000000000033b87      0x9b5 /usr/lib/gcc/arm-none-eabi/4.9.3/../../../arm-none-eabi/lib/armv7e-m/fpu/libg.a(lib_a-wctomb_r.o)
 .debug_info    0x000000000003453c       0xc2 /usr/lib/gcc/arm-none-eabi/4.9.3/armv7e-m/fpu/libgcc.a(_arm_addsubdf3.o)
 .debug_info    0x00000000000345fe       0xc2 /usr/lib/gcc/arm-none-eabi/4.9.3/armv7e-m/fpu/libgcc.a(_arm_muldivdf3.o)
 .debug_info    0x00000000000346c0       0xc2 /usr/lib/gcc/arm-none-eabi/4.9.3/armv7e-m/fpu/libgcc.a(_arm_cmpdf2.o)
 .debug_info    0x0000000000034782       0xc2 /usr/lib/gcc/arm-none-eabi/4.9.3/armv7e-m/fpu/libgcc.a(_arm_fixdfsi.o)
 .debug_info    0x0000000000034844       0xbd /usr/lib/gcc/arm-none-eabi/4.9.3/armv7e-m/fpu/libgcc.a(_aeabi_uldivmod.o)
 .debug_info    0x0000000000034901      0x164 /usr/lib/gcc/arm-none-eabi/4.9.3/armv7e-m/fpu/libgcc.a(bpabi.o)
 .debug_info    0x0000000000034a65       0xc1 /usr/lib/gcc/arm-none-eabi/4.9.3/armv7e-m/fpu/libgcc.a(_dvmd_tls.o)
 .debug_info    0x0000000000034b26      0x5bc /usr/lib/gcc/arm-none-eabi/4.9.3/armv7e-m/fpu/libgcc.a(_divdi3.o)
 .debug_info    0x00000000000350e2      0x57c /usr/lib/gcc/arm-none-eabi/4.9.3/armv7e-m/fpu/libgcc.a(_udivdi3.o)

.debug_abbrev   0x0000000000000000     0xa1b8
 .debug_abbrev  0x0000000000000000      0x2e4 build/main.o
 .debug_abbrev  0x00000000000002e4       0x14 build/mycode.o
 .debug_abbrev  0x00000000000002f8      0x11e build/mytest.o
 .debug_abbrev  0x0000000000000416      0x126 build/simple_task.o
 .debug_abbrev  0x000000000000053c      0x255 build/task_executive1.o
 .debug_abbrev  0x0000000000000791      0x163 build/task_test1.o
 .debug_abbrev  0x00000000000008f4      0x136 build/monitor.o
 .debug_abbrev  0x0000000000000a2a      0x1c0 build/parser.o
 .debug_abbrev  0x0000000000000bea      0x1a3 build/dump.o
 .debug_abbrev  0x0000000000000d8d      0x21c build/syscall.o
 .debug_abbrev  0x0000000000000fa9      0x45e build/terminal.o
 .debug_abbrev  0x0000000000001407      0x1e3 build/decoder/decoder.o
 .debug_abbrev  0x00000000000015ea       0x95 build/decoder/STM32F30x_decoder.o
 .debug_abbrev  0x000000000000167f      0x101 build/Drivers/CMSIS/Device/ST/STM32F3xx/Source/Templates/system_stm32f3xx.o
 .debug_abbrev  0x0000000000001780      0x2f0 build/Drivers/STM32F3xx_HAL_Driver/Src/stm32f3xx_hal_rcc.o
 .debug_abbrev  0x0000000000001a70      0x1e2 build/Drivers/STM32F3xx_HAL_Driver/Src/stm32f3xx_hal.o
 .debug_abbrev  0x0000000000001c52      0x2c9 build/Drivers/STM32F3xx_HAL_Driver/Src/stm32f3xx_hal_cortex.o
 .debug_abbrev  0x0000000000001f1b      0x1bf build/Drivers/STM32F3xx_HAL_Driver/Src/stm32f3xx_hal_gpio.o
 .debug_abbrev  0x00000000000020da      0x33b build/Drivers/STM32F3xx_HAL_Driver/Src/stm32f3xx_hal_pcd.o
 .debug_abbrev  0x0000000000002415      0x187 build/Drivers/STM32F3xx_HAL_Driver/Src/stm32f3xx_hal_pcd_ex.o
 .debug_abbrev  0x000000000000259c      0x28f build/Drivers/STM32F3xx_HAL_Driver/Src/stm32f3xx_hal_i2c.o
 .debug_abbrev  0x000000000000282b      0x305 build/Drivers/STM32F3xx_HAL_Driver/Src/stm32f3xx_hal_spi.o
 .debug_abbrev  0x0000000000002b30      0x26d build/Drivers/STM32_USB_Device_Library/Core/Src/usbd_core.o
 .debug_abbrev  0x0000000000002d9d      0x2d9 build/Drivers/STM32_USB_Device_Library/Core/Src/usbd_ctlreq.o
 .debug_abbrev  0x0000000000003076      0x16a build/Drivers/STM32_USB_Device_Library/Core/Src/usbd_ioreq.o
 .debug_abbrev  0x00000000000031e0      0x27e build/Drivers/STM32_USB_Device_Library/Class/CDC/Src/usbd_cdc.o
 .debug_abbrev  0x000000000000345e      0x303 build/usbd_conf.o
 .debug_abbrev  0x0000000000003761      0x1a8 build/usbd_desc.o
 .debug_abbrev  0x0000000000003909      0x265 build/usbd_cdc_interface.o
 .debug_abbrev  0x0000000000003b6e      0x369 build/Drivers/BSP/STM32F3-Discovery/stm32f3_discovery.o
 .debug_abbrev  0x0000000000003ed7      0x168 build/Drivers/BSP/STM32F3-Discovery/stm32f3_discovery_accelerometer.o
 .debug_abbrev  0x000000000000403f      0x198 build/Drivers/BSP/STM32F3-Discovery/stm32f3_discovery_gyroscope.o
 .debug_abbrev  0x00000000000041d7      0x1d9 build/Drivers/BSP/Components/lsm303dlhc/lsm303dlhc.o
 .debug_abbrev  0x00000000000043b0      0x1e3 build/Drivers/BSP/Components/l3gd20/l3gd20.o
 .debug_abbrev  0x0000000000004593       0x12 build/Drivers/CMSIS/Device/ST/STM32F3xx/Source/Templates/gcc/startup_stm32f303xc.o
 .debug_abbrev  0x00000000000045a5       0xb8 /usr/lib/gcc/arm-none-eabi/4.9.3/../../../arm-none-eabi/lib/armv7e-m/fpu/libg.a(lib_a-atexit.o)
 .debug_abbrev  0x000000000000465d       0x4e /usr/lib/gcc/arm-none-eabi/4.9.3/../../../arm-none-eabi/lib/armv7e-m/fpu/libg.a(lib_a-ctype_.o)
 .debug_abbrev  0x00000000000046ab      0x18f /usr/lib/gcc/arm-none-eabi/4.9.3/../../../arm-none-eabi/lib/armv7e-m/fpu/libg.a(lib_a-errno.o)
 .debug_abbrev  0x000000000000483a       0xbd /usr/lib/gcc/arm-none-eabi/4.9.3/../../../arm-none-eabi/lib/armv7e-m/fpu/libg.a(lib_a-fini.o)
 .debug_abbrev  0x00000000000048f7      0x180 /usr/lib/gcc/arm-none-eabi/4.9.3/../../../arm-none-eabi/lib/armv7e-m/fpu/libg.a(lib_a-impure.o)
 .debug_abbrev  0x0000000000004a77       0xba /usr/lib/gcc/arm-none-eabi/4.9.3/../../../arm-none-eabi/lib/armv7e-m/fpu/libg.a(lib_a-init.o)
 .debug_abbrev  0x0000000000004b31       0x9f /usr/lib/gcc/arm-none-eabi/4.9.3/../../../arm-none-eabi/lib/armv7e-m/fpu/libg.a(lib_a-memset.o)
 .debug_abbrev  0x0000000000004bd0      0x227 /usr/lib/gcc/arm-none-eabi/4.9.3/../../../arm-none-eabi/lib/armv7e-m/fpu/libg.a(lib_a-printf.o)
 .debug_abbrev  0x0000000000004df7      0x1fa /usr/lib/gcc/arm-none-eabi/4.9.3/../../../arm-none-eabi/lib/armv7e-m/fpu/libg.a(lib_a-putchar.o)
 .debug_abbrev  0x0000000000004ff1      0x25e /usr/lib/gcc/arm-none-eabi/4.9.3/../../../arm-none-eabi/lib/armv7e-m/fpu/libg.a(lib_a-puts.o)
 .debug_abbrev  0x000000000000524f      0x242 /usr/lib/gcc/arm-none-eabi/4.9.3/../../../arm-none-eabi/lib/armv7e-m/fpu/libg.a(lib_a-setvbuf.o)
 .debug_abbrev  0x0000000000005491       0xad /usr/lib/gcc/arm-none-eabi/4.9.3/../../../arm-none-eabi/lib/armv7e-m/fpu/libg.a(lib_a-strcasecmp.o)
 .debug_abbrev  0x000000000000553e       0x72 /usr/lib/gcc/arm-none-eabi/4.9.3/../../../arm-none-eabi/lib/armv7e-m/fpu/libg.a(lib_a-strcpy.o)
 .debug_abbrev  0x00000000000055b0       0x70 /usr/lib/gcc/arm-none-eabi/4.9.3/../../../arm-none-eabi/lib/armv7e-m/fpu/libg.a(lib_a-strlen.o)
 .debug_abbrev  0x0000000000005620      0x1ed /usr/lib/gcc/arm-none-eabi/4.9.3/../../../arm-none-eabi/lib/armv7e-m/fpu/libg.a(lib_a-strtok.o)
 .debug_abbrev  0x000000000000580d       0xed /usr/lib/gcc/arm-none-eabi/4.9.3/../../../arm-none-eabi/lib/armv7e-m/fpu/libg.a(lib_a-strtok_r.o)
 .debug_abbrev  0x00000000000058fa      0x207 /usr/lib/gcc/arm-none-eabi/4.9.3/../../../arm-none-eabi/lib/armv7e-m/fpu/libg.a(lib_a-strtoul.o)
 .debug_abbrev  0x0000000000005b01      0x3e0 /usr/lib/gcc/arm-none-eabi/4.9.3/../../../arm-none-eabi/lib/armv7e-m/fpu/libg.a(lib_a-vfprintf.o)
 .debug_abbrev  0x0000000000005ee1      0x20b /usr/lib/gcc/arm-none-eabi/4.9.3/../../../arm-none-eabi/lib/armv7e-m/fpu/libg.a(lib_a-wsetup.o)
 .debug_abbrev  0x00000000000060ec      0x20f /usr/lib/gcc/arm-none-eabi/4.9.3/../../../arm-none-eabi/lib/armv7e-m/fpu/libg.a(lib_a-__atexit.o)
 .debug_abbrev  0x00000000000062fb      0x285 /usr/lib/gcc/arm-none-eabi/4.9.3/../../../arm-none-eabi/lib/armv7e-m/fpu/libg.a(lib_a-__call_atexit.o)
 .debug_abbrev  0x0000000000006580      0x2bc /usr/lib/gcc/arm-none-eabi/4.9.3/../../../arm-none-eabi/lib/armv7e-m/fpu/libg.a(lib_a-dtoa.o)
 .debug_abbrev  0x000000000000683c      0x2a1 /usr/lib/gcc/arm-none-eabi/4.9.3/../../../arm-none-eabi/lib/armv7e-m/fpu/libg.a(lib_a-fflush.o)
 .debug_abbrev  0x0000000000006add      0x36d /usr/lib/gcc/arm-none-eabi/4.9.3/../../../arm-none-eabi/lib/armv7e-m/fpu/libg.a(lib_a-findfp.o)
 .debug_abbrev  0x0000000000006e4a      0x27b /usr/lib/gcc/arm-none-eabi/4.9.3/../../../arm-none-eabi/lib/armv7e-m/fpu/libg.a(lib_a-freer.o)
 .debug_abbrev  0x00000000000070c5      0x24a /usr/lib/gcc/arm-none-eabi/4.9.3/../../../arm-none-eabi/lib/armv7e-m/fpu/libg.a(lib_a-fvwrite.o)
 .debug_abbrev  0x000000000000730f      0x1c2 /usr/lib/gcc/arm-none-eabi/4.9.3/../../../arm-none-eabi/lib/armv7e-m/fpu/libg.a(lib_a-fwalk.o)
 .debug_abbrev  0x00000000000074d1      0x2ac /usr/lib/gcc/arm-none-eabi/4.9.3/../../../arm-none-eabi/lib/armv7e-m/fpu/libg.a(lib_a-locale.o)
 .debug_abbrev  0x000000000000777d      0x206 /usr/lib/gcc/arm-none-eabi/4.9.3/../../../arm-none-eabi/lib/armv7e-m/fpu/libg.a(lib_a-makebuf.o)
 .debug_abbrev  0x0000000000007983      0x1fa /usr/lib/gcc/arm-none-eabi/4.9.3/../../../arm-none-eabi/lib/armv7e-m/fpu/libg.a(lib_a-malloc.o)
 .debug_abbrev  0x0000000000007b7d      0x2ad /usr/lib/gcc/arm-none-eabi/4.9.3/../../../arm-none-eabi/lib/armv7e-m/fpu/libg.a(lib_a-mallocr.o)
 .debug_abbrev  0x0000000000007e2a       0xba /usr/lib/gcc/arm-none-eabi/4.9.3/../../../arm-none-eabi/lib/armv7e-m/fpu/libg.a(lib_a-memchr.o)
 .debug_abbrev  0x0000000000007ee4       0x14 /usr/lib/gcc/arm-none-eabi/4.9.3/../../../arm-none-eabi/lib/armv7e-m/fpu/libg.a(lib_a-memcpy.o)
 .debug_abbrev  0x0000000000007ef8       0xab /usr/lib/gcc/arm-none-eabi/4.9.3/../../../arm-none-eabi/lib/armv7e-m/fpu/libg.a(lib_a-memmove.o)
 .debug_abbrev  0x0000000000007fa3      0x19a /usr/lib/gcc/arm-none-eabi/4.9.3/../../../arm-none-eabi/lib/armv7e-m/fpu/libg.a(lib_a-mlock.o)
 .debug_abbrev  0x000000000000813d      0x39d /usr/lib/gcc/arm-none-eabi/4.9.3/../../../arm-none-eabi/lib/armv7e-m/fpu/libg.a(lib_a-mprec.o)
 .debug_abbrev  0x00000000000084da      0x23a /usr/lib/gcc/arm-none-eabi/4.9.3/../../../arm-none-eabi/lib/armv7e-m/fpu/libg.a(lib_a-putc.o)
 .debug_abbrev  0x0000000000008714      0x260 /usr/lib/gcc/arm-none-eabi/4.9.3/../../../arm-none-eabi/lib/armv7e-m/fpu/libg.a(lib_a-reallocr.o)
 .debug_abbrev  0x0000000000008974       0x6f /usr/lib/gcc/arm-none-eabi/4.9.3/../../../arm-none-eabi/lib/armv7e-m/fpu/libg.a(lib_a-s_fpclassify.o)
 .debug_abbrev  0x00000000000089e3      0x246 /usr/lib/gcc/arm-none-eabi/4.9.3/../../../arm-none-eabi/lib/armv7e-m/fpu/libg.a(lib_a-stdio.o)
 .debug_abbrev  0x0000000000008c29      0x3c9 /usr/lib/gcc/arm-none-eabi/4.9.3/../../../arm-none-eabi/lib/armv7e-m/fpu/libg.a(lib_a-vfiprintf.o)
 .debug_abbrev  0x0000000000008ff2      0x25b /usr/lib/gcc/arm-none-eabi/4.9.3/../../../arm-none-eabi/lib/armv7e-m/fpu/libg.a(lib_a-wbuf.o)
 .debug_abbrev  0x000000000000924d      0x213 /usr/lib/gcc/arm-none-eabi/4.9.3/../../../arm-none-eabi/lib/armv7e-m/fpu/libg.a(lib_a-callocr.o)
 .debug_abbrev  0x0000000000009460      0x2aa /usr/lib/gcc/arm-none-eabi/4.9.3/../../../arm-none-eabi/lib/armv7e-m/fpu/libg.a(lib_a-fclose.o)
 .debug_abbrev  0x000000000000970a      0x28e /usr/lib/gcc/arm-none-eabi/4.9.3/../../../arm-none-eabi/lib/armv7e-m/fpu/libg.a(lib_a-fputwc.o)
 .debug_abbrev  0x0000000000009998      0x222 /usr/lib/gcc/arm-none-eabi/4.9.3/../../../arm-none-eabi/lib/armv7e-m/fpu/libg.a(lib_a-wcrtomb.o)
 .debug_abbrev  0x0000000000009bba      0x212 /usr/lib/gcc/arm-none-eabi/4.9.3/../../../arm-none-eabi/lib/armv7e-m/fpu/libg.a(lib_a-wctomb_r.o)
 .debug_abbrev  0x0000000000009dcc       0x14 /usr/lib/gcc/arm-none-eabi/4.9.3/armv7e-m/fpu/libgcc.a(_arm_addsubdf3.o)
 .debug_abbrev  0x0000000000009de0       0x14 /usr/lib/gcc/arm-none-eabi/4.9.3/armv7e-m/fpu/libgcc.a(_arm_muldivdf3.o)
 .debug_abbrev  0x0000000000009df4       0x14 /usr/lib/gcc/arm-none-eabi/4.9.3/armv7e-m/fpu/libgcc.a(_arm_cmpdf2.o)
 .debug_abbrev  0x0000000000009e08       0x14 /usr/lib/gcc/arm-none-eabi/4.9.3/armv7e-m/fpu/libgcc.a(_arm_fixdfsi.o)
 .debug_abbrev  0x0000000000009e1c       0x14 /usr/lib/gcc/arm-none-eabi/4.9.3/armv7e-m/fpu/libgcc.a(_aeabi_uldivmod.o)
 .debug_abbrev  0x0000000000009e30       0xb7 /usr/lib/gcc/arm-none-eabi/4.9.3/armv7e-m/fpu/libgcc.a(bpabi.o)
 .debug_abbrev  0x0000000000009ee7       0x14 /usr/lib/gcc/arm-none-eabi/4.9.3/armv7e-m/fpu/libgcc.a(_dvmd_tls.o)
 .debug_abbrev  0x0000000000009efb      0x169 /usr/lib/gcc/arm-none-eabi/4.9.3/armv7e-m/fpu/libgcc.a(_divdi3.o)
 .debug_abbrev  0x000000000000a064      0x154 /usr/lib/gcc/arm-none-eabi/4.9.3/armv7e-m/fpu/libgcc.a(_udivdi3.o)

.debug_loc      0x0000000000000000    0x19cbd
 .debug_loc     0x0000000000000000      0x1c6 build/main.o
 .debug_loc     0x00000000000001c6       0x66 build/mytest.o
 .debug_loc     0x000000000000022c       0x2c build/simple_task.o
 .debug_loc     0x0000000000000258      0x139 build/task_executive1.o
 .debug_loc     0x0000000000000391       0xe7 build/task_test1.o
 .debug_loc     0x0000000000000478       0x6a build/monitor.o
 .debug_loc     0x00000000000004e2      0x387 build/parser.o
 .debug_loc     0x0000000000000869      0x1ed build/dump.o
 .debug_loc     0x0000000000000a56       0xe4 build/syscall.o
 .debug_loc     0x0000000000000b3a      0x6d8 build/terminal.o
 .debug_loc     0x0000000000001212      0x5e3 build/decoder/decoder.o
 .debug_loc     0x00000000000017f5       0xad build/Drivers/CMSIS/Device/ST/STM32F3xx/Source/Templates/system_stm32f3xx.o
 .debug_loc     0x00000000000018a2     0x1202 build/Drivers/STM32F3xx_HAL_Driver/Src/stm32f3xx_hal_rcc.o
 .debug_loc     0x0000000000002aa4       0x3d build/Drivers/STM32F3xx_HAL_Driver/Src/stm32f3xx_hal.o
 .debug_loc     0x0000000000002ae1      0x31e build/Drivers/STM32F3xx_HAL_Driver/Src/stm32f3xx_hal_cortex.o
 .debug_loc     0x0000000000002dff      0x38a build/Drivers/STM32F3xx_HAL_Driver/Src/stm32f3xx_hal_gpio.o
 .debug_loc     0x0000000000003189      0xd97 build/Drivers/STM32F3xx_HAL_Driver/Src/stm32f3xx_hal_pcd.o
 .debug_loc     0x0000000000003f20      0x4bf build/Drivers/STM32F3xx_HAL_Driver/Src/stm32f3xx_hal_pcd_ex.o
 .debug_loc     0x00000000000043df     0x201b build/Drivers/STM32F3xx_HAL_Driver/Src/stm32f3xx_hal_i2c.o
 .debug_loc     0x00000000000063fa     0x114a build/Drivers/STM32F3xx_HAL_Driver/Src/stm32f3xx_hal_spi.o
 .debug_loc     0x0000000000007544      0x645 build/Drivers/STM32_USB_Device_Library/Core/Src/usbd_core.o
 .debug_loc     0x0000000000007b89      0x6bd build/Drivers/STM32_USB_Device_Library/Core/Src/usbd_ctlreq.o
 .debug_loc     0x0000000000008246      0x204 build/Drivers/STM32_USB_Device_Library/Core/Src/usbd_ioreq.o
 .debug_loc     0x000000000000844a      0x434 build/Drivers/STM32_USB_Device_Library/Class/CDC/Src/usbd_cdc.o
 .debug_loc     0x000000000000887e      0x612 build/usbd_conf.o
 .debug_loc     0x0000000000008e90      0x265 build/usbd_desc.o
 .debug_loc     0x00000000000090f5       0xf1 build/usbd_cdc_interface.o
 .debug_loc     0x00000000000091e6      0x405 build/Drivers/BSP/STM32F3-Discovery/stm32f3_discovery.o
 .debug_loc     0x00000000000095eb       0xf0 build/Drivers/BSP/STM32F3-Discovery/stm32f3_discovery_accelerometer.o
 .debug_loc     0x00000000000096db      0x192 build/Drivers/BSP/STM32F3-Discovery/stm32f3_discovery_gyroscope.o
 .debug_loc     0x000000000000986d      0x629 build/Drivers/BSP/Components/lsm303dlhc/lsm303dlhc.o
 .debug_loc     0x0000000000009e96      0x1b5 build/Drivers/BSP/Components/l3gd20/l3gd20.o
 .debug_loc     0x000000000000a04b       0x2c /usr/lib/gcc/arm-none-eabi/4.9.3/../../../arm-none-eabi/lib/armv7e-m/fpu/libg.a(lib_a-atexit.o)
 .debug_loc     0x000000000000a077       0x5c /usr/lib/gcc/arm-none-eabi/4.9.3/../../../arm-none-eabi/lib/armv7e-m/fpu/libg.a(lib_a-fini.o)
 .debug_loc     0x000000000000a0d3       0xae /usr/lib/gcc/arm-none-eabi/4.9.3/../../../arm-none-eabi/lib/armv7e-m/fpu/libg.a(lib_a-init.o)
 .debug_loc     0x000000000000a181      0x1ae /usr/lib/gcc/arm-none-eabi/4.9.3/../../../arm-none-eabi/lib/armv7e-m/fpu/libg.a(lib_a-memset.o)
 .debug_loc     0x000000000000a32f       0x34 /usr/lib/gcc/arm-none-eabi/4.9.3/../../../arm-none-eabi/lib/armv7e-m/fpu/libg.a(lib_a-printf.o)
 .debug_loc     0x000000000000a363       0x81 /usr/lib/gcc/arm-none-eabi/4.9.3/../../../arm-none-eabi/lib/armv7e-m/fpu/libg.a(lib_a-putchar.o)
 .debug_loc     0x000000000000a3e4       0xd2 /usr/lib/gcc/arm-none-eabi/4.9.3/../../../arm-none-eabi/lib/armv7e-m/fpu/libg.a(lib_a-puts.o)
 .debug_loc     0x000000000000a4b6      0x17c /usr/lib/gcc/arm-none-eabi/4.9.3/../../../arm-none-eabi/lib/armv7e-m/fpu/libg.a(lib_a-setvbuf.o)
 .debug_loc     0x000000000000a632      0x248 /usr/lib/gcc/arm-none-eabi/4.9.3/../../../arm-none-eabi/lib/armv7e-m/fpu/libg.a(lib_a-strcasecmp.o)
 .debug_loc     0x000000000000a87a       0x21 /usr/lib/gcc/arm-none-eabi/4.9.3/../../../arm-none-eabi/lib/armv7e-m/fpu/libg.a(lib_a-strcpy.o)
 .debug_loc     0x000000000000a89b       0x21 /usr/lib/gcc/arm-none-eabi/4.9.3/../../../arm-none-eabi/lib/armv7e-m/fpu/libg.a(lib_a-strlen.o)
 .debug_loc     0x000000000000a8bc       0x61 /usr/lib/gcc/arm-none-eabi/4.9.3/../../../arm-none-eabi/lib/armv7e-m/fpu/libg.a(lib_a-strtok.o)
 .debug_loc     0x000000000000a91d      0x241 /usr/lib/gcc/arm-none-eabi/4.9.3/../../../arm-none-eabi/lib/armv7e-m/fpu/libg.a(lib_a-strtok_r.o)
 .debug_loc     0x000000000000ab5e      0x360 /usr/lib/gcc/arm-none-eabi/4.9.3/../../../arm-none-eabi/lib/armv7e-m/fpu/libg.a(lib_a-strtoul.o)
 .debug_loc     0x000000000000aebe     0x2641 /usr/lib/gcc/arm-none-eabi/4.9.3/../../../arm-none-eabi/lib/armv7e-m/fpu/libg.a(lib_a-vfprintf.o)
 .debug_loc     0x000000000000d4ff       0xa2 /usr/lib/gcc/arm-none-eabi/4.9.3/../../../arm-none-eabi/lib/armv7e-m/fpu/libg.a(lib_a-wsetup.o)
 .debug_loc     0x000000000000d5a1      0x197 /usr/lib/gcc/arm-none-eabi/4.9.3/../../../arm-none-eabi/lib/armv7e-m/fpu/libg.a(lib_a-__atexit.o)
 .debug_loc     0x000000000000d738      0x146 /usr/lib/gcc/arm-none-eabi/4.9.3/../../../arm-none-eabi/lib/armv7e-m/fpu/libg.a(lib_a-__call_atexit.o)
 .debug_loc     0x000000000000d87e     0x2a48 /usr/lib/gcc/arm-none-eabi/4.9.3/../../../arm-none-eabi/lib/armv7e-m/fpu/libg.a(lib_a-dtoa.o)
 .debug_loc     0x00000000000102c6      0x257 /usr/lib/gcc/arm-none-eabi/4.9.3/../../../arm-none-eabi/lib/armv7e-m/fpu/libg.a(lib_a-fflush.o)
 .debug_loc     0x000000000001051d      0x22e /usr/lib/gcc/arm-none-eabi/4.9.3/../../../arm-none-eabi/lib/armv7e-m/fpu/libg.a(lib_a-findfp.o)
 .debug_loc     0x000000000001074b      0x4fd /usr/lib/gcc/arm-none-eabi/4.9.3/../../../arm-none-eabi/lib/armv7e-m/fpu/libg.a(lib_a-freer.o)
 .debug_loc     0x0000000000010c48      0x674 /usr/lib/gcc/arm-none-eabi/4.9.3/../../../arm-none-eabi/lib/armv7e-m/fpu/libg.a(lib_a-fvwrite.o)
 .debug_loc     0x00000000000112bc      0x207 /usr/lib/gcc/arm-none-eabi/4.9.3/../../../arm-none-eabi/lib/armv7e-m/fpu/libg.a(lib_a-fwalk.o)
 .debug_loc     0x00000000000114c3      0x131 /usr/lib/gcc/arm-none-eabi/4.9.3/../../../arm-none-eabi/lib/armv7e-m/fpu/libg.a(lib_a-locale.o)
 .debug_loc     0x00000000000115f4      0x10c /usr/lib/gcc/arm-none-eabi/4.9.3/../../../arm-none-eabi/lib/armv7e-m/fpu/libg.a(lib_a-makebuf.o)
 .debug_loc     0x0000000000011700       0x58 /usr/lib/gcc/arm-none-eabi/4.9.3/../../../arm-none-eabi/lib/armv7e-m/fpu/libg.a(lib_a-malloc.o)
 .debug_loc     0x0000000000011758      0xdc4 /usr/lib/gcc/arm-none-eabi/4.9.3/../../../arm-none-eabi/lib/armv7e-m/fpu/libg.a(lib_a-mallocr.o)
 .debug_loc     0x000000000001251c      0x180 /usr/lib/gcc/arm-none-eabi/4.9.3/../../../arm-none-eabi/lib/armv7e-m/fpu/libg.a(lib_a-memchr.o)
 .debug_loc     0x000000000001269c      0x2d7 /usr/lib/gcc/arm-none-eabi/4.9.3/../../../arm-none-eabi/lib/armv7e-m/fpu/libg.a(lib_a-memmove.o)
 .debug_loc     0x0000000000012973     0x1d12 /usr/lib/gcc/arm-none-eabi/4.9.3/../../../arm-none-eabi/lib/armv7e-m/fpu/libg.a(lib_a-mprec.o)
 .debug_loc     0x0000000000014685      0x242 /usr/lib/gcc/arm-none-eabi/4.9.3/../../../arm-none-eabi/lib/armv7e-m/fpu/libg.a(lib_a-putc.o)
 .debug_loc     0x00000000000148c7     0x1218 /usr/lib/gcc/arm-none-eabi/4.9.3/../../../arm-none-eabi/lib/armv7e-m/fpu/libg.a(lib_a-reallocr.o)
 .debug_loc     0x0000000000015adf      0x29e /usr/lib/gcc/arm-none-eabi/4.9.3/../../../arm-none-eabi/lib/armv7e-m/fpu/libg.a(lib_a-stdio.o)
 .debug_loc     0x0000000000015d7d     0x19a5 /usr/lib/gcc/arm-none-eabi/4.9.3/../../../arm-none-eabi/lib/armv7e-m/fpu/libg.a(lib_a-vfiprintf.o)
 .debug_loc     0x0000000000017722      0x11d /usr/lib/gcc/arm-none-eabi/4.9.3/../../../arm-none-eabi/lib/armv7e-m/fpu/libg.a(lib_a-wbuf.o)
 .debug_loc     0x000000000001783f      0x231 /usr/lib/gcc/arm-none-eabi/4.9.3/../../../arm-none-eabi/lib/armv7e-m/fpu/libg.a(lib_a-callocr.o)
 .debug_loc     0x0000000000017a70      0x151 /usr/lib/gcc/arm-none-eabi/4.9.3/../../../arm-none-eabi/lib/armv7e-m/fpu/libg.a(lib_a-fclose.o)
 .debug_loc     0x0000000000017bc1      0x1ff /usr/lib/gcc/arm-none-eabi/4.9.3/../../../arm-none-eabi/lib/armv7e-m/fpu/libg.a(lib_a-fputwc.o)
 .debug_loc     0x0000000000017dc0      0x1fa /usr/lib/gcc/arm-none-eabi/4.9.3/../../../arm-none-eabi/lib/armv7e-m/fpu/libg.a(lib_a-wcrtomb.o)
 .debug_loc     0x0000000000017fba      0x124 /usr/lib/gcc/arm-none-eabi/4.9.3/../../../arm-none-eabi/lib/armv7e-m/fpu/libg.a(lib_a-wctomb_r.o)
 .debug_loc     0x00000000000180de       0xa0 /usr/lib/gcc/arm-none-eabi/4.9.3/armv7e-m/fpu/libgcc.a(bpabi.o)
 .debug_loc     0x000000000001817e      0xdef /usr/lib/gcc/arm-none-eabi/4.9.3/armv7e-m/fpu/libgcc.a(_divdi3.o)
 .debug_loc     0x0000000000018f6d      0xd50 /usr/lib/gcc/arm-none-eabi/4.9.3/armv7e-m/fpu/libgcc.a(_udivdi3.o)

.debug_aranges  0x0000000000000000     0x1878
 .debug_aranges
                0x0000000000000000       0x50 build/main.o
 .debug_aranges
                0x0000000000000050       0x20 build/mycode.o
 .debug_aranges
                0x0000000000000070       0x20 build/mytest.o
 .debug_aranges
                0x0000000000000090       0x28 build/simple_task.o
 .debug_aranges
                0x00000000000000b8       0x48 build/task_executive1.o
 .debug_aranges
                0x0000000000000100       0x50 build/task_test1.o
 .debug_aranges
                0x0000000000000150       0x28 build/monitor.o
 .debug_aranges
                0x0000000000000178       0x40 build/parser.o
 .debug_aranges
                0x00000000000001b8       0x28 build/dump.o
 .debug_aranges
                0x00000000000001e0       0x40 build/syscall.o
 .debug_aranges
                0x0000000000000220       0x70 build/terminal.o
 .debug_aranges
                0x0000000000000290       0x58 build/decoder/decoder.o
 .debug_aranges
                0x00000000000002e8       0x18 build/decoder/STM32F30x_decoder.o
 .debug_aranges
                0x0000000000000300       0x28 build/Drivers/CMSIS/Device/ST/STM32F3xx/Source/Templates/system_stm32f3xx.o
 .debug_aranges
                0x0000000000000328       0x88 build/Drivers/STM32F3xx_HAL_Driver/Src/stm32f3xx_hal_rcc.o
 .debug_aranges
                0x00000000000003b0       0xb0 build/Drivers/STM32F3xx_HAL_Driver/Src/stm32f3xx_hal.o
 .debug_aranges
                0x0000000000000460       0x90 build/Drivers/STM32F3xx_HAL_Driver/Src/stm32f3xx_hal_cortex.o
 .debug_aranges
                0x00000000000004f0       0x58 build/Drivers/STM32F3xx_HAL_Driver/Src/stm32f3xx_hal_gpio.o
 .debug_aranges
                0x0000000000000548      0x118 build/Drivers/STM32F3xx_HAL_Driver/Src/stm32f3xx_hal_pcd.o
 .debug_aranges
                0x0000000000000660       0x38 build/Drivers/STM32F3xx_HAL_Driver/Src/stm32f3xx_hal_pcd_ex.o
 .debug_aranges
                0x0000000000000698      0x198 build/Drivers/STM32F3xx_HAL_Driver/Src/stm32f3xx_hal_i2c.o
 .debug_aranges
                0x0000000000000830      0x168 build/Drivers/STM32F3xx_HAL_Driver/Src/stm32f3xx_hal_spi.o
 .debug_aranges
                0x0000000000000998       0xb8 build/Drivers/STM32_USB_Device_Library/Core/Src/usbd_core.o
 .debug_aranges
                0x0000000000000a50       0x48 build/Drivers/STM32_USB_Device_Library/Core/Src/usbd_ctlreq.o
 .debug_aranges
                0x0000000000000a98       0x50 build/Drivers/STM32_USB_Device_Library/Core/Src/usbd_ioreq.o
 .debug_aranges
                0x0000000000000ae8       0x90 build/Drivers/STM32_USB_Device_Library/Class/CDC/Src/usbd_cdc.o
 .debug_aranges
                0x0000000000000b78      0x108 build/usbd_conf.o
 .debug_aranges
                0x0000000000000c80       0x58 build/usbd_desc.o
 .debug_aranges
                0x0000000000000cd8       0x38 build/usbd_cdc_interface.o
 .debug_aranges
                0x0000000000000d10       0xa0 build/Drivers/BSP/STM32F3-Discovery/stm32f3_discovery.o
 .debug_aranges
                0x0000000000000db0       0x30 build/Drivers/BSP/STM32F3-Discovery/stm32f3_discovery_accelerometer.o
 .debug_aranges
                0x0000000000000de0       0x50 build/Drivers/BSP/STM32F3-Discovery/stm32f3_discovery_gyroscope.o
 .debug_aranges
                0x0000000000000e30       0xa8 build/Drivers/BSP/Components/lsm303dlhc/lsm303dlhc.o
 .debug_aranges
                0x0000000000000ed8       0x68 build/Drivers/BSP/Components/l3gd20/l3gd20.o
 .debug_aranges
                0x0000000000000f40       0x28 build/Drivers/CMSIS/Device/ST/STM32F3xx/Source/Templates/gcc/startup_stm32f303xc.o
 .debug_aranges
                0x0000000000000f68       0x20 /usr/lib/gcc/arm-none-eabi/4.9.3/../../../arm-none-eabi/lib/armv7e-m/fpu/libg.a(lib_a-atexit.o)
 .debug_aranges
                0x0000000000000f88       0x18 /usr/lib/gcc/arm-none-eabi/4.9.3/../../../arm-none-eabi/lib/armv7e-m/fpu/libg.a(lib_a-ctype_.o)
 .debug_aranges
                0x0000000000000fa0       0x20 /usr/lib/gcc/arm-none-eabi/4.9.3/../../../arm-none-eabi/lib/armv7e-m/fpu/libg.a(lib_a-errno.o)
 .debug_aranges
                0x0000000000000fc0       0x20 /usr/lib/gcc/arm-none-eabi/4.9.3/../../../arm-none-eabi/lib/armv7e-m/fpu/libg.a(lib_a-fini.o)
 .debug_aranges
                0x0000000000000fe0       0x18 /usr/lib/gcc/arm-none-eabi/4.9.3/../../../arm-none-eabi/lib/armv7e-m/fpu/libg.a(lib_a-impure.o)
 .debug_aranges
                0x0000000000000ff8       0x20 /usr/lib/gcc/arm-none-eabi/4.9.3/../../../arm-none-eabi/lib/armv7e-m/fpu/libg.a(lib_a-init.o)
 .debug_aranges
                0x0000000000001018       0x20 /usr/lib/gcc/arm-none-eabi/4.9.3/../../../arm-none-eabi/lib/armv7e-m/fpu/libg.a(lib_a-memset.o)
 .debug_aranges
                0x0000000000001038       0x28 /usr/lib/gcc/arm-none-eabi/4.9.3/../../../arm-none-eabi/lib/armv7e-m/fpu/libg.a(lib_a-printf.o)
 .debug_aranges
                0x0000000000001060       0x28 /usr/lib/gcc/arm-none-eabi/4.9.3/../../../arm-none-eabi/lib/armv7e-m/fpu/libg.a(lib_a-putchar.o)
 .debug_aranges
                0x0000000000001088       0x28 /usr/lib/gcc/arm-none-eabi/4.9.3/../../../arm-none-eabi/lib/armv7e-m/fpu/libg.a(lib_a-puts.o)
 .debug_aranges
                0x00000000000010b0       0x20 /usr/lib/gcc/arm-none-eabi/4.9.3/../../../arm-none-eabi/lib/armv7e-m/fpu/libg.a(lib_a-setvbuf.o)
 .debug_aranges
                0x00000000000010d0       0x20 /usr/lib/gcc/arm-none-eabi/4.9.3/../../../arm-none-eabi/lib/armv7e-m/fpu/libg.a(lib_a-strcasecmp.o)
 .debug_aranges
                0x00000000000010f0       0x20 /usr/lib/gcc/arm-none-eabi/4.9.3/../../../arm-none-eabi/lib/armv7e-m/fpu/libg.a(lib_a-strcpy.o)
 .debug_aranges
                0x0000000000001110       0x20 /usr/lib/gcc/arm-none-eabi/4.9.3/../../../arm-none-eabi/lib/armv7e-m/fpu/libg.a(lib_a-strlen.o)
 .debug_aranges
                0x0000000000001130       0x20 /usr/lib/gcc/arm-none-eabi/4.9.3/../../../arm-none-eabi/lib/armv7e-m/fpu/libg.a(lib_a-strtok.o)
 .debug_aranges
                0x0000000000001150       0x28 /usr/lib/gcc/arm-none-eabi/4.9.3/../../../arm-none-eabi/lib/armv7e-m/fpu/libg.a(lib_a-strtok_r.o)
 .debug_aranges
                0x0000000000001178       0x28 /usr/lib/gcc/arm-none-eabi/4.9.3/../../../arm-none-eabi/lib/armv7e-m/fpu/libg.a(lib_a-strtoul.o)
 .debug_aranges
                0x00000000000011a0       0x30 /usr/lib/gcc/arm-none-eabi/4.9.3/../../../arm-none-eabi/lib/armv7e-m/fpu/libg.a(lib_a-vfprintf.o)
 .debug_aranges
                0x00000000000011d0       0x20 /usr/lib/gcc/arm-none-eabi/4.9.3/../../../arm-none-eabi/lib/armv7e-m/fpu/libg.a(lib_a-wsetup.o)
 .debug_aranges
                0x00000000000011f0       0x20 /usr/lib/gcc/arm-none-eabi/4.9.3/../../../arm-none-eabi/lib/armv7e-m/fpu/libg.a(lib_a-__atexit.o)
 .debug_aranges
                0x0000000000001210       0x28 /usr/lib/gcc/arm-none-eabi/4.9.3/../../../arm-none-eabi/lib/armv7e-m/fpu/libg.a(lib_a-__call_atexit.o)
 .debug_aranges
                0x0000000000001238       0x28 /usr/lib/gcc/arm-none-eabi/4.9.3/../../../arm-none-eabi/lib/armv7e-m/fpu/libg.a(lib_a-dtoa.o)
 .debug_aranges
                0x0000000000001260       0x30 /usr/lib/gcc/arm-none-eabi/4.9.3/../../../arm-none-eabi/lib/armv7e-m/fpu/libg.a(lib_a-fflush.o)
 .debug_aranges
                0x0000000000001290       0x88 /usr/lib/gcc/arm-none-eabi/4.9.3/../../../arm-none-eabi/lib/armv7e-m/fpu/libg.a(lib_a-findfp.o)
 .debug_aranges
                0x0000000000001318       0x28 /usr/lib/gcc/arm-none-eabi/4.9.3/../../../arm-none-eabi/lib/armv7e-m/fpu/libg.a(lib_a-freer.o)
 .debug_aranges
                0x0000000000001340       0x20 /usr/lib/gcc/arm-none-eabi/4.9.3/../../../arm-none-eabi/lib/armv7e-m/fpu/libg.a(lib_a-fvwrite.o)
 .debug_aranges
                0x0000000000001360       0x28 /usr/lib/gcc/arm-none-eabi/4.9.3/../../../arm-none-eabi/lib/armv7e-m/fpu/libg.a(lib_a-fwalk.o)
 .debug_aranges
                0x0000000000001388       0x58 /usr/lib/gcc/arm-none-eabi/4.9.3/../../../arm-none-eabi/lib/armv7e-m/fpu/libg.a(lib_a-locale.o)
 .debug_aranges
                0x00000000000013e0       0x20 /usr/lib/gcc/arm-none-eabi/4.9.3/../../../arm-none-eabi/lib/armv7e-m/fpu/libg.a(lib_a-makebuf.o)
 .debug_aranges
                0x0000000000001400       0x28 /usr/lib/gcc/arm-none-eabi/4.9.3/../../../arm-none-eabi/lib/armv7e-m/fpu/libg.a(lib_a-malloc.o)
 .debug_aranges
                0x0000000000001428       0x20 /usr/lib/gcc/arm-none-eabi/4.9.3/../../../arm-none-eabi/lib/armv7e-m/fpu/libg.a(lib_a-mallocr.o)
 .debug_aranges
                0x0000000000001448       0x20 /usr/lib/gcc/arm-none-eabi/4.9.3/../../../arm-none-eabi/lib/armv7e-m/fpu/libg.a(lib_a-memchr.o)
 .debug_aranges
                0x0000000000001468       0x20 /usr/lib/gcc/arm-none-eabi/4.9.3/../../../arm-none-eabi/lib/armv7e-m/fpu/libg.a(lib_a-memcpy.o)
 .debug_aranges
                0x0000000000001488       0x20 /usr/lib/gcc/arm-none-eabi/4.9.3/../../../arm-none-eabi/lib/armv7e-m/fpu/libg.a(lib_a-memmove.o)
 .debug_aranges
                0x00000000000014a8       0x28 /usr/lib/gcc/arm-none-eabi/4.9.3/../../../arm-none-eabi/lib/armv7e-m/fpu/libg.a(lib_a-mlock.o)
 .debug_aranges
                0x00000000000014d0       0xb0 /usr/lib/gcc/arm-none-eabi/4.9.3/../../../arm-none-eabi/lib/armv7e-m/fpu/libg.a(lib_a-mprec.o)
 .debug_aranges
                0x0000000000001580       0x28 /usr/lib/gcc/arm-none-eabi/4.9.3/../../../arm-none-eabi/lib/armv7e-m/fpu/libg.a(lib_a-putc.o)
 .debug_aranges
                0x00000000000015a8       0x20 /usr/lib/gcc/arm-none-eabi/4.9.3/../../../arm-none-eabi/lib/armv7e-m/fpu/libg.a(lib_a-reallocr.o)
 .debug_aranges
                0x00000000000015c8       0x20 /usr/lib/gcc/arm-none-eabi/4.9.3/../../../arm-none-eabi/lib/armv7e-m/fpu/libg.a(lib_a-s_fpclassify.o)
 .debug_aranges
                0x00000000000015e8       0x40 /usr/lib/gcc/arm-none-eabi/4.9.3/../../../arm-none-eabi/lib/armv7e-m/fpu/libg.a(lib_a-stdio.o)
 .debug_aranges
                0x0000000000001628       0x40 /usr/lib/gcc/arm-none-eabi/4.9.3/../../../arm-none-eabi/lib/armv7e-m/fpu/libg.a(lib_a-vfiprintf.o)
 .debug_aranges
                0x0000000000001668       0x28 /usr/lib/gcc/arm-none-eabi/4.9.3/../../../arm-none-eabi/lib/armv7e-m/fpu/libg.a(lib_a-wbuf.o)
 .debug_aranges
                0x0000000000001690       0x20 /usr/lib/gcc/arm-none-eabi/4.9.3/../../../arm-none-eabi/lib/armv7e-m/fpu/libg.a(lib_a-callocr.o)
 .debug_aranges
                0x00000000000016b0       0x28 /usr/lib/gcc/arm-none-eabi/4.9.3/../../../arm-none-eabi/lib/armv7e-m/fpu/libg.a(lib_a-fclose.o)
 .debug_aranges
                0x00000000000016d8       0x30 /usr/lib/gcc/arm-none-eabi/4.9.3/../../../arm-none-eabi/lib/armv7e-m/fpu/libg.a(lib_a-fputwc.o)
 .debug_aranges
                0x0000000000001708       0x28 /usr/lib/gcc/arm-none-eabi/4.9.3/../../../arm-none-eabi/lib/armv7e-m/fpu/libg.a(lib_a-wcrtomb.o)
 .debug_aranges
                0x0000000000001730       0x28 /usr/lib/gcc/arm-none-eabi/4.9.3/../../../arm-none-eabi/lib/armv7e-m/fpu/libg.a(lib_a-wctomb_r.o)
 .debug_aranges
                0x0000000000001758       0x20 /usr/lib/gcc/arm-none-eabi/4.9.3/armv7e-m/fpu/libgcc.a(_arm_addsubdf3.o)
 .debug_aranges
                0x0000000000001778       0x20 /usr/lib/gcc/arm-none-eabi/4.9.3/armv7e-m/fpu/libgcc.a(_arm_muldivdf3.o)
 .debug_aranges
                0x0000000000001798       0x20 /usr/lib/gcc/arm-none-eabi/4.9.3/armv7e-m/fpu/libgcc.a(_arm_cmpdf2.o)
 .debug_aranges
                0x00000000000017b8       0x20 /usr/lib/gcc/arm-none-eabi/4.9.3/armv7e-m/fpu/libgcc.a(_arm_fixdfsi.o)
 .debug_aranges
                0x00000000000017d8       0x20 /usr/lib/gcc/arm-none-eabi/4.9.3/armv7e-m/fpu/libgcc.a(_aeabi_uldivmod.o)
 .debug_aranges
                0x00000000000017f8       0x20 /usr/lib/gcc/arm-none-eabi/4.9.3/armv7e-m/fpu/libgcc.a(bpabi.o)
 .debug_aranges
                0x0000000000001818       0x20 /usr/lib/gcc/arm-none-eabi/4.9.3/armv7e-m/fpu/libgcc.a(_dvmd_tls.o)
 .debug_aranges
                0x0000000000001838       0x20 /usr/lib/gcc/arm-none-eabi/4.9.3/armv7e-m/fpu/libgcc.a(_divdi3.o)
 .debug_aranges
                0x0000000000001858       0x20 /usr/lib/gcc/arm-none-eabi/4.9.3/armv7e-m/fpu/libgcc.a(_udivdi3.o)

.debug_ranges   0x0000000000000000     0x1d50
 .debug_ranges  0x0000000000000000       0x58 build/main.o
 .debug_ranges  0x0000000000000058       0x28 build/mytest.o
 .debug_ranges  0x0000000000000080       0x18 build/simple_task.o
 .debug_ranges  0x0000000000000098       0x38 build/task_executive1.o
 .debug_ranges  0x00000000000000d0       0x40 build/task_test1.o
 .debug_ranges  0x0000000000000110       0x18 build/monitor.o
 .debug_ranges  0x0000000000000128       0x30 build/parser.o
 .debug_ranges  0x0000000000000158       0x30 build/dump.o
 .debug_ranges  0x0000000000000188       0x30 build/syscall.o
 .debug_ranges  0x00000000000001b8       0x60 build/terminal.o
 .debug_ranges  0x0000000000000218       0x48 build/decoder/decoder.o
 .debug_ranges  0x0000000000000260       0x18 build/Drivers/CMSIS/Device/ST/STM32F3xx/Source/Templates/system_stm32f3xx.o
 .debug_ranges  0x0000000000000278       0x78 build/Drivers/STM32F3xx_HAL_Driver/Src/stm32f3xx_hal_rcc.o
 .debug_ranges  0x00000000000002f0       0xa0 build/Drivers/STM32F3xx_HAL_Driver/Src/stm32f3xx_hal.o
 .debug_ranges  0x0000000000000390      0x118 build/Drivers/STM32F3xx_HAL_Driver/Src/stm32f3xx_hal_cortex.o
 .debug_ranges  0x00000000000004a8       0x48 build/Drivers/STM32F3xx_HAL_Driver/Src/stm32f3xx_hal_gpio.o
 .debug_ranges  0x00000000000004f0      0x188 build/Drivers/STM32F3xx_HAL_Driver/Src/stm32f3xx_hal_pcd.o
 .debug_ranges  0x0000000000000678       0x28 build/Drivers/STM32F3xx_HAL_Driver/Src/stm32f3xx_hal_pcd_ex.o
 .debug_ranges  0x00000000000006a0      0x188 build/Drivers/STM32F3xx_HAL_Driver/Src/stm32f3xx_hal_i2c.o
 .debug_ranges  0x0000000000000828      0x1e0 build/Drivers/STM32F3xx_HAL_Driver/Src/stm32f3xx_hal_spi.o
 .debug_ranges  0x0000000000000a08       0xa8 build/Drivers/STM32_USB_Device_Library/Core/Src/usbd_core.o
 .debug_ranges  0x0000000000000ab0       0x38 build/Drivers/STM32_USB_Device_Library/Core/Src/usbd_ctlreq.o
 .debug_ranges  0x0000000000000ae8       0x40 build/Drivers/STM32_USB_Device_Library/Core/Src/usbd_ioreq.o
 .debug_ranges  0x0000000000000b28       0x80 build/Drivers/STM32_USB_Device_Library/Class/CDC/Src/usbd_cdc.o
 .debug_ranges  0x0000000000000ba8       0xf8 build/usbd_conf.o
 .debug_ranges  0x0000000000000ca0       0x60 build/usbd_desc.o
 .debug_ranges  0x0000000000000d00       0x28 build/usbd_cdc_interface.o
 .debug_ranges  0x0000000000000d28       0xd8 build/Drivers/BSP/STM32F3-Discovery/stm32f3_discovery.o
 .debug_ranges  0x0000000000000e00       0x20 build/Drivers/BSP/STM32F3-Discovery/stm32f3_discovery_accelerometer.o
 .debug_ranges  0x0000000000000e20       0x40 build/Drivers/BSP/STM32F3-Discovery/stm32f3_discovery_gyroscope.o
 .debug_ranges  0x0000000000000e60       0x98 build/Drivers/BSP/Components/lsm303dlhc/lsm303dlhc.o
 .debug_ranges  0x0000000000000ef8       0x58 build/Drivers/BSP/Components/l3gd20/l3gd20.o
 .debug_ranges  0x0000000000000f50       0x20 build/Drivers/CMSIS/Device/ST/STM32F3xx/Source/Templates/gcc/startup_stm32f303xc.o
 .debug_ranges  0x0000000000000f70       0x10 /usr/lib/gcc/arm-none-eabi/4.9.3/../../../arm-none-eabi/lib/armv7e-m/fpu/libg.a(lib_a-atexit.o)
 .debug_ranges  0x0000000000000f80       0x10 /usr/lib/gcc/arm-none-eabi/4.9.3/../../../arm-none-eabi/lib/armv7e-m/fpu/libg.a(lib_a-errno.o)
 .debug_ranges  0x0000000000000f90       0x10 /usr/lib/gcc/arm-none-eabi/4.9.3/../../../arm-none-eabi/lib/armv7e-m/fpu/libg.a(lib_a-fini.o)
 .debug_ranges  0x0000000000000fa0       0x10 /usr/lib/gcc/arm-none-eabi/4.9.3/../../../arm-none-eabi/lib/armv7e-m/fpu/libg.a(lib_a-init.o)
 .debug_ranges  0x0000000000000fb0       0x10 /usr/lib/gcc/arm-none-eabi/4.9.3/../../../arm-none-eabi/lib/armv7e-m/fpu/libg.a(lib_a-memset.o)
 .debug_ranges  0x0000000000000fc0       0x18 /usr/lib/gcc/arm-none-eabi/4.9.3/../../../arm-none-eabi/lib/armv7e-m/fpu/libg.a(lib_a-printf.o)
 .debug_ranges  0x0000000000000fd8       0x18 /usr/lib/gcc/arm-none-eabi/4.9.3/../../../arm-none-eabi/lib/armv7e-m/fpu/libg.a(lib_a-putchar.o)
 .debug_ranges  0x0000000000000ff0       0x38 /usr/lib/gcc/arm-none-eabi/4.9.3/../../../arm-none-eabi/lib/armv7e-m/fpu/libg.a(lib_a-puts.o)
 .debug_ranges  0x0000000000001028       0x28 /usr/lib/gcc/arm-none-eabi/4.9.3/../../../arm-none-eabi/lib/armv7e-m/fpu/libg.a(lib_a-setvbuf.o)
 .debug_ranges  0x0000000000001050       0x40 /usr/lib/gcc/arm-none-eabi/4.9.3/../../../arm-none-eabi/lib/armv7e-m/fpu/libg.a(lib_a-strcasecmp.o)
 .debug_ranges  0x0000000000001090       0x10 /usr/lib/gcc/arm-none-eabi/4.9.3/../../../arm-none-eabi/lib/armv7e-m/fpu/libg.a(lib_a-strcpy.o)
 .debug_ranges  0x00000000000010a0       0x10 /usr/lib/gcc/arm-none-eabi/4.9.3/../../../arm-none-eabi/lib/armv7e-m/fpu/libg.a(lib_a-strlen.o)
 .debug_ranges  0x00000000000010b0       0x10 /usr/lib/gcc/arm-none-eabi/4.9.3/../../../arm-none-eabi/lib/armv7e-m/fpu/libg.a(lib_a-strtok.o)
 .debug_ranges  0x00000000000010c0       0x18 /usr/lib/gcc/arm-none-eabi/4.9.3/../../../arm-none-eabi/lib/armv7e-m/fpu/libg.a(lib_a-strtok_r.o)
 .debug_ranges  0x00000000000010d8       0x18 /usr/lib/gcc/arm-none-eabi/4.9.3/../../../arm-none-eabi/lib/armv7e-m/fpu/libg.a(lib_a-strtoul.o)
 .debug_ranges  0x00000000000010f0      0x158 /usr/lib/gcc/arm-none-eabi/4.9.3/../../../arm-none-eabi/lib/armv7e-m/fpu/libg.a(lib_a-vfprintf.o)
 .debug_ranges  0x0000000000001248       0x30 /usr/lib/gcc/arm-none-eabi/4.9.3/../../../arm-none-eabi/lib/armv7e-m/fpu/libg.a(lib_a-wsetup.o)
 .debug_ranges  0x0000000000001278       0x10 /usr/lib/gcc/arm-none-eabi/4.9.3/../../../arm-none-eabi/lib/armv7e-m/fpu/libg.a(lib_a-__atexit.o)
 .debug_ranges  0x0000000000001288       0x30 /usr/lib/gcc/arm-none-eabi/4.9.3/../../../arm-none-eabi/lib/armv7e-m/fpu/libg.a(lib_a-__call_atexit.o)
 .debug_ranges  0x00000000000012b8       0x18 /usr/lib/gcc/arm-none-eabi/4.9.3/../../../arm-none-eabi/lib/armv7e-m/fpu/libg.a(lib_a-dtoa.o)
 .debug_ranges  0x00000000000012d0       0x80 /usr/lib/gcc/arm-none-eabi/4.9.3/../../../arm-none-eabi/lib/armv7e-m/fpu/libg.a(lib_a-fflush.o)
 .debug_ranges  0x0000000000001350       0xe8 /usr/lib/gcc/arm-none-eabi/4.9.3/../../../arm-none-eabi/lib/armv7e-m/fpu/libg.a(lib_a-findfp.o)
 .debug_ranges  0x0000000000001438       0x18 /usr/lib/gcc/arm-none-eabi/4.9.3/../../../arm-none-eabi/lib/armv7e-m/fpu/libg.a(lib_a-freer.o)
 .debug_ranges  0x0000000000001450       0x30 /usr/lib/gcc/arm-none-eabi/4.9.3/../../../arm-none-eabi/lib/armv7e-m/fpu/libg.a(lib_a-fvwrite.o)
 .debug_ranges  0x0000000000001480       0x18 /usr/lib/gcc/arm-none-eabi/4.9.3/../../../arm-none-eabi/lib/armv7e-m/fpu/libg.a(lib_a-fwalk.o)
 .debug_ranges  0x0000000000001498       0x48 /usr/lib/gcc/arm-none-eabi/4.9.3/../../../arm-none-eabi/lib/armv7e-m/fpu/libg.a(lib_a-locale.o)
 .debug_ranges  0x00000000000014e0       0x10 /usr/lib/gcc/arm-none-eabi/4.9.3/../../../arm-none-eabi/lib/armv7e-m/fpu/libg.a(lib_a-makebuf.o)
 .debug_ranges  0x00000000000014f0       0x18 /usr/lib/gcc/arm-none-eabi/4.9.3/../../../arm-none-eabi/lib/armv7e-m/fpu/libg.a(lib_a-malloc.o)
 .debug_ranges  0x0000000000001508       0x50 /usr/lib/gcc/arm-none-eabi/4.9.3/../../../arm-none-eabi/lib/armv7e-m/fpu/libg.a(lib_a-mallocr.o)
 .debug_ranges  0x0000000000001558       0x10 /usr/lib/gcc/arm-none-eabi/4.9.3/../../../arm-none-eabi/lib/armv7e-m/fpu/libg.a(lib_a-memchr.o)
 .debug_ranges  0x0000000000001568       0x10 /usr/lib/gcc/arm-none-eabi/4.9.3/../../../arm-none-eabi/lib/armv7e-m/fpu/libg.a(lib_a-memmove.o)
 .debug_ranges  0x0000000000001578       0x18 /usr/lib/gcc/arm-none-eabi/4.9.3/../../../arm-none-eabi/lib/armv7e-m/fpu/libg.a(lib_a-mlock.o)
 .debug_ranges  0x0000000000001590      0x108 /usr/lib/gcc/arm-none-eabi/4.9.3/../../../arm-none-eabi/lib/armv7e-m/fpu/libg.a(lib_a-mprec.o)
 .debug_ranges  0x0000000000001698       0x48 /usr/lib/gcc/arm-none-eabi/4.9.3/../../../arm-none-eabi/lib/armv7e-m/fpu/libg.a(lib_a-putc.o)
 .debug_ranges  0x00000000000016e0      0x180 /usr/lib/gcc/arm-none-eabi/4.9.3/../../../arm-none-eabi/lib/armv7e-m/fpu/libg.a(lib_a-reallocr.o)
 .debug_ranges  0x0000000000001860       0x10 /usr/lib/gcc/arm-none-eabi/4.9.3/../../../arm-none-eabi/lib/armv7e-m/fpu/libg.a(lib_a-s_fpclassify.o)
 .debug_ranges  0x0000000000001870       0x30 /usr/lib/gcc/arm-none-eabi/4.9.3/../../../arm-none-eabi/lib/armv7e-m/fpu/libg.a(lib_a-stdio.o)
 .debug_ranges  0x00000000000018a0      0x1f0 /usr/lib/gcc/arm-none-eabi/4.9.3/../../../arm-none-eabi/lib/armv7e-m/fpu/libg.a(lib_a-vfiprintf.o)
 .debug_ranges  0x0000000000001a90       0x30 /usr/lib/gcc/arm-none-eabi/4.9.3/../../../arm-none-eabi/lib/armv7e-m/fpu/libg.a(lib_a-wbuf.o)
 .debug_ranges  0x0000000000001ac0       0x50 /usr/lib/gcc/arm-none-eabi/4.9.3/../../../arm-none-eabi/lib/armv7e-m/fpu/libg.a(lib_a-callocr.o)
 .debug_ranges  0x0000000000001b10       0x48 /usr/lib/gcc/arm-none-eabi/4.9.3/../../../arm-none-eabi/lib/armv7e-m/fpu/libg.a(lib_a-fclose.o)
 .debug_ranges  0x0000000000001b58       0x20 /usr/lib/gcc/arm-none-eabi/4.9.3/../../../arm-none-eabi/lib/armv7e-m/fpu/libg.a(lib_a-fputwc.o)
 .debug_ranges  0x0000000000001b78       0x18 /usr/lib/gcc/arm-none-eabi/4.9.3/../../../arm-none-eabi/lib/armv7e-m/fpu/libg.a(lib_a-wcrtomb.o)
 .debug_ranges  0x0000000000001b90       0x18 /usr/lib/gcc/arm-none-eabi/4.9.3/../../../arm-none-eabi/lib/armv7e-m/fpu/libg.a(lib_a-wctomb_r.o)
 .debug_ranges  0x0000000000001ba8       0xd0 /usr/lib/gcc/arm-none-eabi/4.9.3/armv7e-m/fpu/libgcc.a(_divdi3.o)
 .debug_ranges  0x0000000000001c78       0xd8 /usr/lib/gcc/arm-none-eabi/4.9.3/armv7e-m/fpu/libgcc.a(_udivdi3.o)

.debug_line     0x0000000000000000     0xd387
 .debug_line    0x0000000000000000      0x29c build/main.o
 .debug_line    0x000000000000029c       0x56 build/mycode.o
 .debug_line    0x00000000000002f2       0x7d build/mytest.o
 .debug_line    0x000000000000036f       0xf3 build/simple_task.o
 .debug_line    0x0000000000000462      0x195 build/task_executive1.o
 .debug_line    0x00000000000005f7      0x15f build/task_test1.o
 .debug_line    0x0000000000000756       0xd1 build/monitor.o
 .debug_line    0x0000000000000827      0x203 build/parser.o
 .debug_line    0x0000000000000a2a      0x10f build/dump.o
 .debug_line    0x0000000000000b39      0x12f build/syscall.o
 .debug_line    0x0000000000000c68      0x3e0 build/terminal.o
 .debug_line    0x0000000000001048      0x28d build/decoder/decoder.o
 .debug_line    0x00000000000012d5       0x9e build/decoder/STM32F30x_decoder.o
 .debug_line    0x0000000000001373      0x162 build/Drivers/CMSIS/Device/ST/STM32F3xx/Source/Templates/system_stm32f3xx.o
 .debug_line    0x00000000000014d5      0x8e7 build/Drivers/STM32F3xx_HAL_Driver/Src/stm32f3xx_hal_rcc.o
 .debug_line    0x0000000000001dbc      0x2cc build/Drivers/STM32F3xx_HAL_Driver/Src/stm32f3xx_hal.o
 .debug_line    0x0000000000002088      0x2dd build/Drivers/STM32F3xx_HAL_Driver/Src/stm32f3xx_hal_cortex.o
 .debug_line    0x0000000000002365      0x2e0 build/Drivers/STM32F3xx_HAL_Driver/Src/stm32f3xx_hal_gpio.o
 .debug_line    0x0000000000002645      0x728 build/Drivers/STM32F3xx_HAL_Driver/Src/stm32f3xx_hal_pcd.o
 .debug_line    0x0000000000002d6d      0x1dd build/Drivers/STM32F3xx_HAL_Driver/Src/stm32f3xx_hal_pcd_ex.o
 .debug_line    0x0000000000002f4a      0xf26 build/Drivers/STM32F3xx_HAL_Driver/Src/stm32f3xx_hal_i2c.o
 .debug_line    0x0000000000003e70      0xc71 build/Drivers/STM32F3xx_HAL_Driver/Src/stm32f3xx_hal_spi.o
 .debug_line    0x0000000000004ae1      0x319 build/Drivers/STM32_USB_Device_Library/Core/Src/usbd_core.o
 .debug_line    0x0000000000004dfa      0x23b build/Drivers/STM32_USB_Device_Library/Core/Src/usbd_ctlreq.o
 .debug_line    0x0000000000005035      0x1a3 build/Drivers/STM32_USB_Device_Library/Core/Src/usbd_ioreq.o
 .debug_line    0x00000000000051d8      0x2fa build/Drivers/STM32_USB_Device_Library/Class/CDC/Src/usbd_cdc.o
 .debug_line    0x00000000000054d2      0x429 build/usbd_conf.o
 .debug_line    0x00000000000058fb      0x1a5 build/usbd_desc.o
 .debug_line    0x0000000000005aa0      0x248 build/usbd_cdc_interface.o
 .debug_line    0x0000000000005ce8      0x42e build/Drivers/BSP/STM32F3-Discovery/stm32f3_discovery.o
 .debug_line    0x0000000000006116      0x1d9 build/Drivers/BSP/STM32F3-Discovery/stm32f3_discovery_accelerometer.o
 .debug_line    0x00000000000062ef      0x215 build/Drivers/BSP/STM32F3-Discovery/stm32f3_discovery_gyroscope.o
 .debug_line    0x0000000000006504      0x2af build/Drivers/BSP/Components/lsm303dlhc/lsm303dlhc.o
 .debug_line    0x00000000000067b3      0x210 build/Drivers/BSP/Components/l3gd20/l3gd20.o
 .debug_line    0x00000000000069c3       0xab build/Drivers/CMSIS/Device/ST/STM32F3xx/Source/Templates/gcc/startup_stm32f303xc.o
 .debug_line    0x0000000000006a6e       0xc4 /usr/lib/gcc/arm-none-eabi/4.9.3/../../../arm-none-eabi/lib/armv7e-m/fpu/libg.a(lib_a-atexit.o)
 .debug_line    0x0000000000006b32       0x72 /usr/lib/gcc/arm-none-eabi/4.9.3/../../../arm-none-eabi/lib/armv7e-m/fpu/libg.a(lib_a-ctype_.o)
 .debug_line    0x0000000000006ba4      0x10f /usr/lib/gcc/arm-none-eabi/4.9.3/../../../arm-none-eabi/lib/armv7e-m/fpu/libg.a(lib_a-errno.o)
 .debug_line    0x0000000000006cb3       0x9f /usr/lib/gcc/arm-none-eabi/4.9.3/../../../arm-none-eabi/lib/armv7e-m/fpu/libg.a(lib_a-fini.o)
 .debug_line    0x0000000000006d52       0xf4 /usr/lib/gcc/arm-none-eabi/4.9.3/../../../arm-none-eabi/lib/armv7e-m/fpu/libg.a(lib_a-impure.o)
 .debug_line    0x0000000000006e46       0xb8 /usr/lib/gcc/arm-none-eabi/4.9.3/../../../arm-none-eabi/lib/armv7e-m/fpu/libg.a(lib_a-init.o)
 .debug_line    0x0000000000006efe      0x11c /usr/lib/gcc/arm-none-eabi/4.9.3/../../../arm-none-eabi/lib/armv7e-m/fpu/libg.a(lib_a-memset.o)
 .debug_line    0x000000000000701a      0x192 /usr/lib/gcc/arm-none-eabi/4.9.3/../../../arm-none-eabi/lib/armv7e-m/fpu/libg.a(lib_a-printf.o)
 .debug_line    0x00000000000071ac      0x16e /usr/lib/gcc/arm-none-eabi/4.9.3/../../../arm-none-eabi/lib/armv7e-m/fpu/libg.a(lib_a-putchar.o)
 .debug_line    0x000000000000731a      0x1b9 /usr/lib/gcc/arm-none-eabi/4.9.3/../../../arm-none-eabi/lib/armv7e-m/fpu/libg.a(lib_a-puts.o)
 .debug_line    0x00000000000074d3      0x1d5 /usr/lib/gcc/arm-none-eabi/4.9.3/../../../arm-none-eabi/lib/armv7e-m/fpu/libg.a(lib_a-setvbuf.o)
 .debug_line    0x00000000000076a8       0xe3 /usr/lib/gcc/arm-none-eabi/4.9.3/../../../arm-none-eabi/lib/armv7e-m/fpu/libg.a(lib_a-strcasecmp.o)
 .debug_line    0x000000000000778b       0xbf /usr/lib/gcc/arm-none-eabi/4.9.3/../../../arm-none-eabi/lib/armv7e-m/fpu/libg.a(lib_a-strcpy.o)
 .debug_line    0x000000000000784a       0xf5 /usr/lib/gcc/arm-none-eabi/4.9.3/../../../arm-none-eabi/lib/armv7e-m/fpu/libg.a(lib_a-strlen.o)
 .debug_line    0x000000000000793f      0x15d /usr/lib/gcc/arm-none-eabi/4.9.3/../../../arm-none-eabi/lib/armv7e-m/fpu/libg.a(lib_a-strtok.o)
 .debug_line    0x0000000000007a9c       0xff /usr/lib/gcc/arm-none-eabi/4.9.3/../../../arm-none-eabi/lib/armv7e-m/fpu/libg.a(lib_a-strtok_r.o)
 .debug_line    0x0000000000007b9b      0x1e3 /usr/lib/gcc/arm-none-eabi/4.9.3/../../../arm-none-eabi/lib/armv7e-m/fpu/libg.a(lib_a-strtoul.o)
 .debug_line    0x0000000000007d7e      0x997 /usr/lib/gcc/arm-none-eabi/4.9.3/../../../arm-none-eabi/lib/armv7e-m/fpu/libg.a(lib_a-vfprintf.o)
 .debug_line    0x0000000000008715      0x1c0 /usr/lib/gcc/arm-none-eabi/4.9.3/../../../arm-none-eabi/lib/armv7e-m/fpu/libg.a(lib_a-wsetup.o)
 .debug_line    0x00000000000088d5      0x196 /usr/lib/gcc/arm-none-eabi/4.9.3/../../../arm-none-eabi/lib/armv7e-m/fpu/libg.a(lib_a-__atexit.o)
 .debug_line    0x0000000000008a6b      0x1c8 /usr/lib/gcc/arm-none-eabi/4.9.3/../../../arm-none-eabi/lib/armv7e-m/fpu/libg.a(lib_a-__call_atexit.o)
 .debug_line    0x0000000000008c33      0x6c7 /usr/lib/gcc/arm-none-eabi/4.9.3/../../../arm-none-eabi/lib/armv7e-m/fpu/libg.a(lib_a-dtoa.o)
 .debug_line    0x00000000000092fa      0x25b /usr/lib/gcc/arm-none-eabi/4.9.3/../../../arm-none-eabi/lib/armv7e-m/fpu/libg.a(lib_a-fflush.o)
 .debug_line    0x0000000000009555      0x31f /usr/lib/gcc/arm-none-eabi/4.9.3/../../../arm-none-eabi/lib/armv7e-m/fpu/libg.a(lib_a-findfp.o)
 .debug_line    0x0000000000009874      0x271 /usr/lib/gcc/arm-none-eabi/4.9.3/../../../arm-none-eabi/lib/armv7e-m/fpu/libg.a(lib_a-freer.o)
 .debug_line    0x0000000000009ae5      0x2eb /usr/lib/gcc/arm-none-eabi/4.9.3/../../../arm-none-eabi/lib/armv7e-m/fpu/libg.a(lib_a-fvwrite.o)
 .debug_line    0x0000000000009dd0      0x1ba /usr/lib/gcc/arm-none-eabi/4.9.3/../../../arm-none-eabi/lib/armv7e-m/fpu/libg.a(lib_a-fwalk.o)
 .debug_line    0x0000000000009f8a      0x206 /usr/lib/gcc/arm-none-eabi/4.9.3/../../../arm-none-eabi/lib/armv7e-m/fpu/libg.a(lib_a-locale.o)
 .debug_line    0x000000000000a190      0x1e3 /usr/lib/gcc/arm-none-eabi/4.9.3/../../../arm-none-eabi/lib/armv7e-m/fpu/libg.a(lib_a-makebuf.o)
 .debug_line    0x000000000000a373      0x171 /usr/lib/gcc/arm-none-eabi/4.9.3/../../../arm-none-eabi/lib/armv7e-m/fpu/libg.a(lib_a-malloc.o)
 .debug_line    0x000000000000a4e4      0x38e /usr/lib/gcc/arm-none-eabi/4.9.3/../../../arm-none-eabi/lib/armv7e-m/fpu/libg.a(lib_a-mallocr.o)
 .debug_line    0x000000000000a872      0x120 /usr/lib/gcc/arm-none-eabi/4.9.3/../../../arm-none-eabi/lib/armv7e-m/fpu/libg.a(lib_a-memchr.o)
 .debug_line    0x000000000000a992       0xbb /usr/lib/gcc/arm-none-eabi/4.9.3/../../../arm-none-eabi/lib/armv7e-m/fpu/libg.a(lib_a-memcpy.o)
 .debug_line    0x000000000000aa4d      0x122 /usr/lib/gcc/arm-none-eabi/4.9.3/../../../arm-none-eabi/lib/armv7e-m/fpu/libg.a(lib_a-memmove.o)
 .debug_line    0x000000000000ab6f      0x112 /usr/lib/gcc/arm-none-eabi/4.9.3/../../../arm-none-eabi/lib/armv7e-m/fpu/libg.a(lib_a-mlock.o)
 .debug_line    0x000000000000ac81      0x6cd /usr/lib/gcc/arm-none-eabi/4.9.3/../../../arm-none-eabi/lib/armv7e-m/fpu/libg.a(lib_a-mprec.o)
 .debug_line    0x000000000000b34e      0x205 /usr/lib/gcc/arm-none-eabi/4.9.3/../../../arm-none-eabi/lib/armv7e-m/fpu/libg.a(lib_a-putc.o)
 .debug_line    0x000000000000b553      0x29d /usr/lib/gcc/arm-none-eabi/4.9.3/../../../arm-none-eabi/lib/armv7e-m/fpu/libg.a(lib_a-reallocr.o)
 .debug_line    0x000000000000b7f0      0x14c /usr/lib/gcc/arm-none-eabi/4.9.3/../../../arm-none-eabi/lib/armv7e-m/fpu/libg.a(lib_a-s_fpclassify.o)
 .debug_line    0x000000000000b93c      0x1d6 /usr/lib/gcc/arm-none-eabi/4.9.3/../../../arm-none-eabi/lib/armv7e-m/fpu/libg.a(lib_a-stdio.o)
 .debug_line    0x000000000000bb12      0x751 /usr/lib/gcc/arm-none-eabi/4.9.3/../../../arm-none-eabi/lib/armv7e-m/fpu/libg.a(lib_a-vfiprintf.o)
 .debug_line    0x000000000000c263      0x1e8 /usr/lib/gcc/arm-none-eabi/4.9.3/../../../arm-none-eabi/lib/armv7e-m/fpu/libg.a(lib_a-wbuf.o)
 .debug_line    0x000000000000c44b      0x134 /usr/lib/gcc/arm-none-eabi/4.9.3/../../../arm-none-eabi/lib/armv7e-m/fpu/libg.a(lib_a-callocr.o)
 .debug_line    0x000000000000c57f      0x1b3 /usr/lib/gcc/arm-none-eabi/4.9.3/../../../arm-none-eabi/lib/armv7e-m/fpu/libg.a(lib_a-fclose.o)
 .debug_line    0x000000000000c732      0x203 /usr/lib/gcc/arm-none-eabi/4.9.3/../../../arm-none-eabi/lib/armv7e-m/fpu/libg.a(lib_a-fputwc.o)
 .debug_line    0x000000000000c935      0x193 /usr/lib/gcc/arm-none-eabi/4.9.3/../../../arm-none-eabi/lib/armv7e-m/fpu/libg.a(lib_a-wcrtomb.o)
 .debug_line    0x000000000000cac8      0x194 /usr/lib/gcc/arm-none-eabi/4.9.3/../../../arm-none-eabi/lib/armv7e-m/fpu/libg.a(lib_a-wctomb_r.o)
 .debug_line    0x000000000000cc5c      0x179 /usr/lib/gcc/arm-none-eabi/4.9.3/armv7e-m/fpu/libgcc.a(_arm_addsubdf3.o)
 .debug_line    0x000000000000cdd5      0x19d /usr/lib/gcc/arm-none-eabi/4.9.3/armv7e-m/fpu/libgcc.a(_arm_muldivdf3.o)
 .debug_line    0x000000000000cf72       0xba /usr/lib/gcc/arm-none-eabi/4.9.3/armv7e-m/fpu/libgcc.a(_arm_cmpdf2.o)
 .debug_line    0x000000000000d02c       0x7a /usr/lib/gcc/arm-none-eabi/4.9.3/armv7e-m/fpu/libgcc.a(_arm_fixdfsi.o)
 .debug_line    0x000000000000d0a6       0x65 /usr/lib/gcc/arm-none-eabi/4.9.3/armv7e-m/fpu/libgcc.a(_aeabi_uldivmod.o)
 .debug_line    0x000000000000d10b       0x65 /usr/lib/gcc/arm-none-eabi/4.9.3/armv7e-m/fpu/libgcc.a(bpabi.o)
 .debug_line    0x000000000000d170       0x61 /usr/lib/gcc/arm-none-eabi/4.9.3/armv7e-m/fpu/libgcc.a(_dvmd_tls.o)
 .debug_line    0x000000000000d1d1       0xe2 /usr/lib/gcc/arm-none-eabi/4.9.3/armv7e-m/fpu/libgcc.a(_divdi3.o)
 .debug_line    0x000000000000d2b3       0xd4 /usr/lib/gcc/arm-none-eabi/4.9.3/armv7e-m/fpu/libgcc.a(_udivdi3.o)

.debug_str      0x0000000000000000     0x9331
 .debug_str     0x0000000000000000      0x597 build/main.o
                                        0x612 (size before relaxing)
 .debug_str     0x0000000000000597       0x21 build/mytest.o
                                        0x1c6 (size before relaxing)
 .debug_str     0x00000000000005b8       0x29 build/simple_task.o
                                        0x208 (size before relaxing)
 .debug_str     0x00000000000005e1       0xb1 build/task_executive1.o
                                        0x26f (size before relaxing)
 .debug_str     0x0000000000000692       0x76 build/task_test1.o
                                        0x254 (size before relaxing)
 .debug_str     0x0000000000000708       0x20 build/monitor.o
                                        0x1de (size before relaxing)
 .debug_str     0x0000000000000728       0xec build/parser.o
                                        0x2d2 (size before relaxing)
 .debug_str     0x0000000000000814       0x28 build/dump.o
                                        0x227 (size before relaxing)
 .debug_str     0x000000000000083c      0x497 build/syscall.o
                                        0x673 (size before relaxing)
 .debug_str     0x0000000000000cd3      0x840 build/terminal.o
                                        0xed6 (size before relaxing)
 .debug_str     0x0000000000001513      0x110 build/decoder/decoder.o
                                        0x384 (size before relaxing)
 .debug_str     0x0000000000001623     0x2798 build/decoder/STM32F30x_decoder.o
                                       0x29b5 (size before relaxing)
 .debug_str     0x0000000000003dbb      0x138 build/Drivers/CMSIS/Device/ST/STM32F3xx/Source/Templates/system_stm32f3xx.o
                                        0x2fa (size before relaxing)
 .debug_str     0x0000000000003ef3      0x28d build/Drivers/STM32F3xx_HAL_Driver/Src/stm32f3xx_hal_rcc.o
                                        0x643 (size before relaxing)
 .debug_str     0x0000000000004180      0x601 build/Drivers/STM32F3xx_HAL_Driver/Src/stm32f3xx_hal.o
                                        0x89a (size before relaxing)
 .debug_str     0x0000000000004781      0x248 build/Drivers/STM32F3xx_HAL_Driver/Src/stm32f3xx_hal_cortex.o
                                        0xa04 (size before relaxing)
 .debug_str     0x00000000000049c9      0x170 build/Drivers/STM32F3xx_HAL_Driver/Src/stm32f3xx_hal_gpio.o
                                        0x44a (size before relaxing)
 .debug_str     0x0000000000004b39      0x3a7 build/Drivers/STM32F3xx_HAL_Driver/Src/stm32f3xx_hal_pcd.o
                                        0x838 (size before relaxing)
 .debug_str     0x0000000000004ee0       0x89 build/Drivers/STM32F3xx_HAL_Driver/Src/stm32f3xx_hal_pcd_ex.o
                                        0x537 (size before relaxing)
 .debug_str     0x0000000000004f69      0x973 build/Drivers/STM32F3xx_HAL_Driver/Src/stm32f3xx_hal_i2c.o
                                        0xc24 (size before relaxing)
 .debug_str     0x00000000000058dc      0x62d build/Drivers/STM32F3xx_HAL_Driver/Src/stm32f3xx_hal_spi.o
                                        0xa6f (size before relaxing)
 .debug_str     0x0000000000005f09      0x278 build/Drivers/STM32_USB_Device_Library/Core/Src/usbd_core.o
                                        0x81c (size before relaxing)
 .debug_str     0x0000000000006181      0x130 build/Drivers/STM32_USB_Device_Library/Core/Src/usbd_ctlreq.o
                                        0x74d (size before relaxing)
 .debug_str     0x00000000000062b1       0x97 build/Drivers/STM32_USB_Device_Library/Core/Src/usbd_ioreq.o
                                        0x67a (size before relaxing)
 .debug_str     0x0000000000006348      0x213 build/Drivers/STM32_USB_Device_Library/Class/CDC/Src/usbd_cdc.o
                                        0x8c6 (size before relaxing)
 .debug_str     0x000000000000655b       0x3a build/usbd_conf.o
                                       0x11d8 (size before relaxing)
 .debug_str     0x0000000000006595      0x162 build/usbd_desc.o
                                        0x458 (size before relaxing)
 .debug_str     0x00000000000066f7      0x535 build/usbd_cdc_interface.o
                                        0xd90 (size before relaxing)
 .debug_str     0x0000000000006c2c      0x225 build/Drivers/BSP/STM32F3-Discovery/stm32f3_discovery.o
                                       0x1290 (size before relaxing)
 .debug_str     0x0000000000006e51      0x1de build/Drivers/BSP/STM32F3-Discovery/stm32f3_discovery_accelerometer.o
                                        0x42a (size before relaxing)
 .debug_str     0x000000000000702f      0x191 build/Drivers/BSP/STM32F3-Discovery/stm32f3_discovery_gyroscope.o
                                        0x468 (size before relaxing)
 .debug_str     0x00000000000071c0      0x2bc build/Drivers/BSP/Components/lsm303dlhc/lsm303dlhc.o
                                        0x56c (size before relaxing)
 .debug_str     0x000000000000747c      0x109 build/Drivers/BSP/Components/l3gd20/l3gd20.o
                                        0x399 (size before relaxing)
 .debug_str     0x0000000000007585      0x1af /usr/lib/gcc/arm-none-eabi/4.9.3/../../../arm-none-eabi/lib/armv7e-m/fpu/libg.a(lib_a-atexit.o)
                                        0x248 (size before relaxing)
 .debug_str     0x0000000000007734       0xa1 /usr/lib/gcc/arm-none-eabi/4.9.3/../../../arm-none-eabi/lib/armv7e-m/fpu/libg.a(lib_a-ctype_.o)
                                        0x18d (size before relaxing)
 .debug_str     0x00000000000077d5       0x98 /usr/lib/gcc/arm-none-eabi/4.9.3/../../../arm-none-eabi/lib/armv7e-m/fpu/libg.a(lib_a-errno.o)
                                        0x5c4 (size before relaxing)
 .debug_str     0x000000000000786d       0xcb /usr/lib/gcc/arm-none-eabi/4.9.3/../../../arm-none-eabi/lib/armv7e-m/fpu/libg.a(lib_a-fini.o)
                                        0x240 (size before relaxing)
 .debug_str     0x0000000000007938       0xb8 /usr/lib/gcc/arm-none-eabi/4.9.3/../../../arm-none-eabi/lib/armv7e-m/fpu/libg.a(lib_a-impure.o)
                                        0x5dc (size before relaxing)
 .debug_str     0x00000000000079f0       0x93 /usr/lib/gcc/arm-none-eabi/4.9.3/../../../arm-none-eabi/lib/armv7e-m/fpu/libg.a(lib_a-init.o)
                                        0x26a (size before relaxing)
 .debug_str     0x0000000000007a83       0xa8 /usr/lib/gcc/arm-none-eabi/4.9.3/../../../arm-none-eabi/lib/armv7e-m/fpu/libg.a(lib_a-memset.o)
                                        0x21f (size before relaxing)
 .debug_str     0x0000000000007b2b       0xcd /usr/lib/gcc/arm-none-eabi/4.9.3/../../../arm-none-eabi/lib/armv7e-m/fpu/libg.a(lib_a-printf.o)
                                        0x605 (size before relaxing)
 .debug_str     0x0000000000007bf8       0x44 /usr/lib/gcc/arm-none-eabi/4.9.3/../../../arm-none-eabi/lib/armv7e-m/fpu/libg.a(lib_a-putchar.o)
                                        0x5e4 (size before relaxing)
 .debug_str     0x0000000000007c3c       0x97 /usr/lib/gcc/arm-none-eabi/4.9.3/../../../arm-none-eabi/lib/armv7e-m/fpu/libg.a(lib_a-puts.o)
                                        0x643 (size before relaxing)
 .debug_str     0x0000000000007cd3       0x43 /usr/lib/gcc/arm-none-eabi/4.9.3/../../../arm-none-eabi/lib/armv7e-m/fpu/libg.a(lib_a-setvbuf.o)
                                        0x613 (size before relaxing)
 .debug_str     0x0000000000007d16       0x3f /usr/lib/gcc/arm-none-eabi/4.9.3/../../../arm-none-eabi/lib/armv7e-m/fpu/libg.a(lib_a-strcasecmp.o)
                                        0x224 (size before relaxing)
 .debug_str     0x0000000000007d55       0xa8 /usr/lib/gcc/arm-none-eabi/4.9.3/../../../arm-none-eabi/lib/armv7e-m/fpu/libg.a(lib_a-strcpy.o)
                                        0x211 (size before relaxing)
 .debug_str     0x0000000000007dfd       0x39 /usr/lib/gcc/arm-none-eabi/4.9.3/../../../arm-none-eabi/lib/armv7e-m/fpu/libg.a(lib_a-strlen.o)
                                        0x218 (size before relaxing)
 .debug_str     0x0000000000007e36       0x3c /usr/lib/gcc/arm-none-eabi/4.9.3/../../../arm-none-eabi/lib/armv7e-m/fpu/libg.a(lib_a-strtok.o)
                                        0x5dd (size before relaxing)
 .debug_str     0x0000000000007e72       0x57 /usr/lib/gcc/arm-none-eabi/4.9.3/../../../arm-none-eabi/lib/armv7e-m/fpu/libg.a(lib_a-strtok_r.o)
                                        0x23d (size before relaxing)
 .debug_str     0x0000000000007ec9       0x57 /usr/lib/gcc/arm-none-eabi/4.9.3/../../../arm-none-eabi/lib/armv7e-m/fpu/libg.a(lib_a-strtoul.o)
                                        0x605 (size before relaxing)
 .debug_str     0x0000000000007f20      0x36f /usr/lib/gcc/arm-none-eabi/4.9.3/../../../arm-none-eabi/lib/armv7e-m/fpu/libg.a(lib_a-vfprintf.o)
                                        0x9be (size before relaxing)
 .debug_str     0x000000000000828f       0x3d /usr/lib/gcc/arm-none-eabi/4.9.3/../../../arm-none-eabi/lib/armv7e-m/fpu/libg.a(lib_a-wsetup.o)
                                        0x5fb (size before relaxing)
 .debug_str     0x00000000000082cc       0x33 /usr/lib/gcc/arm-none-eabi/4.9.3/../../../arm-none-eabi/lib/armv7e-m/fpu/libg.a(lib_a-__atexit.o)
                                        0x624 (size before relaxing)
 .debug_str     0x00000000000082ff       0x7f /usr/lib/gcc/arm-none-eabi/4.9.3/../../../arm-none-eabi/lib/armv7e-m/fpu/libg.a(lib_a-__call_atexit.o)
                                        0x63c (size before relaxing)
 .debug_str     0x000000000000837e      0x154 /usr/lib/gcc/arm-none-eabi/4.9.3/../../../arm-none-eabi/lib/armv7e-m/fpu/libg.a(lib_a-dtoa.o)
                                        0x72e (size before relaxing)
 .debug_str     0x00000000000084d2       0x60 /usr/lib/gcc/arm-none-eabi/4.9.3/../../../arm-none-eabi/lib/armv7e-m/fpu/libg.a(lib_a-fflush.o)
                                        0x63c (size before relaxing)
 .debug_str     0x0000000000008532      0x11d /usr/lib/gcc/arm-none-eabi/4.9.3/../../../arm-none-eabi/lib/armv7e-m/fpu/libg.a(lib_a-findfp.o)
                                        0x703 (size before relaxing)
 .debug_str     0x000000000000864f      0x171 /usr/lib/gcc/arm-none-eabi/4.9.3/../../../arm-none-eabi/lib/armv7e-m/fpu/libg.a(lib_a-freer.o)
                                        0x735 (size before relaxing)
 .debug_str     0x00000000000087c0       0x62 /usr/lib/gcc/arm-none-eabi/4.9.3/../../../arm-none-eabi/lib/armv7e-m/fpu/libg.a(lib_a-fvwrite.o)
                                        0x66e (size before relaxing)
 .debug_str     0x0000000000008822       0x3e /usr/lib/gcc/arm-none-eabi/4.9.3/../../../arm-none-eabi/lib/armv7e-m/fpu/libg.a(lib_a-fwalk.o)
                                        0x5e1 (size before relaxing)
 .debug_str     0x0000000000008860      0x182 /usr/lib/gcc/arm-none-eabi/4.9.3/../../../arm-none-eabi/lib/armv7e-m/fpu/libg.a(lib_a-locale.o)
                                        0x839 (size before relaxing)
 .debug_str     0x00000000000089e2       0x3c /usr/lib/gcc/arm-none-eabi/4.9.3/../../../arm-none-eabi/lib/armv7e-m/fpu/libg.a(lib_a-makebuf.o)
                                        0x6de (size before relaxing)
 .debug_str     0x0000000000008a1e       0x3d /usr/lib/gcc/arm-none-eabi/4.9.3/../../../arm-none-eabi/lib/armv7e-m/fpu/libg.a(lib_a-malloc.o)
                                        0x5f0 (size before relaxing)
 .debug_str     0x0000000000008a5b       0xdf /usr/lib/gcc/arm-none-eabi/4.9.3/../../../arm-none-eabi/lib/armv7e-m/fpu/libg.a(lib_a-mallocr.o)
                                        0x7eb (size before relaxing)
 .debug_str     0x0000000000008b3a       0x44 /usr/lib/gcc/arm-none-eabi/4.9.3/../../../arm-none-eabi/lib/armv7e-m/fpu/libg.a(lib_a-memchr.o)
                                        0x225 (size before relaxing)
 .debug_str     0x0000000000008b7e       0x53 /usr/lib/gcc/arm-none-eabi/4.9.3/../../../arm-none-eabi/lib/armv7e-m/fpu/libg.a(lib_a-memmove.o)
                                        0x23e (size before relaxing)
 .debug_str     0x0000000000008bd1       0x45 /usr/lib/gcc/arm-none-eabi/4.9.3/../../../arm-none-eabi/lib/armv7e-m/fpu/libg.a(lib_a-mlock.o)
                                        0x5e5 (size before relaxing)
 .debug_str     0x0000000000008c16       0x9b /usr/lib/gcc/arm-none-eabi/4.9.3/../../../arm-none-eabi/lib/armv7e-m/fpu/libg.a(lib_a-mprec.o)
                                        0x6e8 (size before relaxing)
 .debug_str     0x0000000000008cb1       0x3d /usr/lib/gcc/arm-none-eabi/4.9.3/../../../arm-none-eabi/lib/armv7e-m/fpu/libg.a(lib_a-putc.o)
                                        0x5fc (size before relaxing)
 .debug_str     0x0000000000008cee       0x4e /usr/lib/gcc/arm-none-eabi/4.9.3/../../../arm-none-eabi/lib/armv7e-m/fpu/libg.a(lib_a-reallocr.o)
                                        0x6bd (size before relaxing)
 .debug_str     0x0000000000008d3c       0xa1 /usr/lib/gcc/arm-none-eabi/4.9.3/../../../arm-none-eabi/lib/armv7e-m/fpu/libg.a(lib_a-s_fpclassify.o)
                                        0x235 (size before relaxing)
 .debug_str     0x0000000000008ddd       0x6c /usr/lib/gcc/arm-none-eabi/4.9.3/../../../arm-none-eabi/lib/armv7e-m/fpu/libg.a(lib_a-stdio.o)
                                        0x637 (size before relaxing)
 .debug_str     0x0000000000008e49       0x29 /usr/lib/gcc/arm-none-eabi/4.9.3/../../../arm-none-eabi/lib/armv7e-m/fpu/libg.a(lib_a-vfiprintf.o)
                                        0x7b0 (size before relaxing)
 .debug_str     0x0000000000008e72       0x36 /usr/lib/gcc/arm-none-eabi/4.9.3/../../../arm-none-eabi/lib/armv7e-m/fpu/libg.a(lib_a-wbuf.o)
                                        0x600 (size before relaxing)
 .debug_str     0x0000000000008ea8        0xf /usr/lib/gcc/arm-none-eabi/4.9.3/../../../arm-none-eabi/lib/armv7e-m/fpu/libg.a(lib_a-callocr.o)
                                        0x615 (size before relaxing)
 .debug_str     0x0000000000008eb7       0x41 /usr/lib/gcc/arm-none-eabi/4.9.3/../../../arm-none-eabi/lib/armv7e-m/fpu/libg.a(lib_a-fclose.o)
                                        0x629 (size before relaxing)
 .debug_str     0x0000000000008ef8       0x44 /usr/lib/gcc/arm-none-eabi/4.9.3/../../../arm-none-eabi/lib/armv7e-m/fpu/libg.a(lib_a-fputwc.o)
                                        0x63c (size before relaxing)
 .debug_str     0x0000000000008f3c       0x4a /usr/lib/gcc/arm-none-eabi/4.9.3/../../../arm-none-eabi/lib/armv7e-m/fpu/libg.a(lib_a-wcrtomb.o)
                                        0x613 (size before relaxing)
 .debug_str     0x0000000000008f86       0x53 /usr/lib/gcc/arm-none-eabi/4.9.3/../../../arm-none-eabi/lib/armv7e-m/fpu/libg.a(lib_a-wctomb_r.o)
                                        0x61c (size before relaxing)
 .debug_str     0x0000000000008fd9      0x1c9 /usr/lib/gcc/arm-none-eabi/4.9.3/armv7e-m/fpu/libgcc.a(bpabi.o)
                                        0x1f8 (size before relaxing)
 .debug_str     0x00000000000091a2      0x18f /usr/lib/gcc/arm-none-eabi/4.9.3/armv7e-m/fpu/libgcc.a(_divdi3.o)
                                        0x2a6 (size before relaxing)
 .debug_str     0x0000000000009331      0x2a7 /usr/lib/gcc/arm-none-eabi/4.9.3/armv7e-m/fpu/libgcc.a(_udivdi3.o)

.debug_frame    0x0000000000000000     0x373c
 .debug_frame   0x0000000000000000       0xbc build/main.o
 .debug_frame   0x00000000000000bc       0x38 build/mytest.o
 .debug_frame   0x00000000000000f4       0x38 build/simple_task.o
 .debug_frame   0x000000000000012c       0x94 build/task_executive1.o
 .debug_frame   0x00000000000001c0       0xd4 build/task_test1.o
 .debug_frame   0x0000000000000294       0x40 build/monitor.o
 .debug_frame   0x00000000000002d4       0x98 build/parser.o
 .debug_frame   0x000000000000036c       0x64 build/dump.o
 .debug_frame   0x00000000000003d0       0x68 build/syscall.o
 .debug_frame   0x0000000000000438      0x140 build/terminal.o
 .debug_frame   0x0000000000000578      0x10c build/decoder/decoder.o
 .debug_frame   0x0000000000000684       0x38 build/Drivers/CMSIS/Device/ST/STM32F3xx/Source/Templates/system_stm32f3xx.o
 .debug_frame   0x00000000000006bc      0x148 build/Drivers/STM32F3xx_HAL_Driver/Src/stm32f3xx_hal_rcc.o
 .debug_frame   0x0000000000000804      0x164 build/Drivers/STM32F3xx_HAL_Driver/Src/stm32f3xx_hal.o
 .debug_frame   0x0000000000000968      0x124 build/Drivers/STM32F3xx_HAL_Driver/Src/stm32f3xx_hal_cortex.o
 .debug_frame   0x0000000000000a8c       0xc0 build/Drivers/STM32F3xx_HAL_Driver/Src/stm32f3xx_hal_gpio.o
 .debug_frame   0x0000000000000b4c      0x298 build/Drivers/STM32F3xx_HAL_Driver/Src/stm32f3xx_hal_pcd.o
 .debug_frame   0x0000000000000de4       0x70 build/Drivers/STM32F3xx_HAL_Driver/Src/stm32f3xx_hal_pcd_ex.o
 .debug_frame   0x0000000000000e54      0x548 build/Drivers/STM32F3xx_HAL_Driver/Src/stm32f3xx_hal_i2c.o
 .debug_frame   0x000000000000139c      0x440 build/Drivers/STM32F3xx_HAL_Driver/Src/stm32f3xx_hal_spi.o
 .debug_frame   0x00000000000017dc      0x1bc build/Drivers/STM32_USB_Device_Library/Core/Src/usbd_core.o
 .debug_frame   0x0000000000001998       0xb0 build/Drivers/STM32_USB_Device_Library/Core/Src/usbd_ctlreq.o
 .debug_frame   0x0000000000001a48       0xc0 build/Drivers/STM32_USB_Device_Library/Core/Src/usbd_ioreq.o
 .debug_frame   0x0000000000001b08      0x150 build/Drivers/STM32_USB_Device_Library/Class/CDC/Src/usbd_cdc.o
 .debug_frame   0x0000000000001c58      0x280 build/usbd_conf.o
 .debug_frame   0x0000000000001ed8       0xc4 build/usbd_desc.o
 .debug_frame   0x0000000000001f9c       0x60 build/usbd_cdc_interface.o
 .debug_frame   0x0000000000001ffc      0x1f8 build/Drivers/BSP/STM32F3-Discovery/stm32f3_discovery.o
 .debug_frame   0x00000000000021f4       0x4c build/Drivers/BSP/STM32F3-Discovery/stm32f3_discovery_accelerometer.o
 .debug_frame   0x0000000000002240       0x8c build/Drivers/BSP/STM32F3-Discovery/stm32f3_discovery_gyroscope.o
 .debug_frame   0x00000000000022cc      0x230 build/Drivers/BSP/Components/lsm303dlhc/lsm303dlhc.o
 .debug_frame   0x00000000000024fc      0x124 build/Drivers/BSP/Components/l3gd20/l3gd20.o
 .debug_frame   0x0000000000002620       0x20 /usr/lib/gcc/arm-none-eabi/4.9.3/../../../arm-none-eabi/lib/armv7e-m/fpu/libg.a(lib_a-atexit.o)
 .debug_frame   0x0000000000002640       0x20 /usr/lib/gcc/arm-none-eabi/4.9.3/../../../arm-none-eabi/lib/armv7e-m/fpu/libg.a(lib_a-errno.o)
 .debug_frame   0x0000000000002660       0x34 /usr/lib/gcc/arm-none-eabi/4.9.3/../../../arm-none-eabi/lib/armv7e-m/fpu/libg.a(lib_a-fini.o)
 .debug_frame   0x0000000000002694       0x2c /usr/lib/gcc/arm-none-eabi/4.9.3/../../../arm-none-eabi/lib/armv7e-m/fpu/libg.a(lib_a-init.o)
 .debug_frame   0x00000000000026c0       0x34 /usr/lib/gcc/arm-none-eabi/4.9.3/../../../arm-none-eabi/lib/armv7e-m/fpu/libg.a(lib_a-memset.o)
 .debug_frame   0x00000000000026f4       0x74 /usr/lib/gcc/arm-none-eabi/4.9.3/../../../arm-none-eabi/lib/armv7e-m/fpu/libg.a(lib_a-printf.o)
 .debug_frame   0x0000000000002768       0x30 /usr/lib/gcc/arm-none-eabi/4.9.3/../../../arm-none-eabi/lib/armv7e-m/fpu/libg.a(lib_a-putchar.o)
 .debug_frame   0x0000000000002798       0x48 /usr/lib/gcc/arm-none-eabi/4.9.3/../../../arm-none-eabi/lib/armv7e-m/fpu/libg.a(lib_a-puts.o)
 .debug_frame   0x00000000000027e0       0x30 /usr/lib/gcc/arm-none-eabi/4.9.3/../../../arm-none-eabi/lib/armv7e-m/fpu/libg.a(lib_a-setvbuf.o)
 .debug_frame   0x0000000000002810       0x2c /usr/lib/gcc/arm-none-eabi/4.9.3/../../../arm-none-eabi/lib/armv7e-m/fpu/libg.a(lib_a-strcasecmp.o)
 .debug_frame   0x000000000000283c       0x20 /usr/lib/gcc/arm-none-eabi/4.9.3/../../../arm-none-eabi/lib/armv7e-m/fpu/libg.a(lib_a-strcpy.o)
 .debug_frame   0x000000000000285c       0x20 /usr/lib/gcc/arm-none-eabi/4.9.3/../../../arm-none-eabi/lib/armv7e-m/fpu/libg.a(lib_a-strlen.o)
 .debug_frame   0x000000000000287c       0x20 /usr/lib/gcc/arm-none-eabi/4.9.3/../../../arm-none-eabi/lib/armv7e-m/fpu/libg.a(lib_a-strtok.o)
 .debug_frame   0x000000000000289c       0x48 /usr/lib/gcc/arm-none-eabi/4.9.3/../../../arm-none-eabi/lib/armv7e-m/fpu/libg.a(lib_a-strtok_r.o)
 .debug_frame   0x00000000000028e4       0x54 /usr/lib/gcc/arm-none-eabi/4.9.3/../../../arm-none-eabi/lib/armv7e-m/fpu/libg.a(lib_a-strtoul.o)
 .debug_frame   0x0000000000002938       0x90 /usr/lib/gcc/arm-none-eabi/4.9.3/../../../arm-none-eabi/lib/armv7e-m/fpu/libg.a(lib_a-vfprintf.o)
 .debug_frame   0x00000000000029c8       0x2c /usr/lib/gcc/arm-none-eabi/4.9.3/../../../arm-none-eabi/lib/armv7e-m/fpu/libg.a(lib_a-wsetup.o)
 .debug_frame   0x00000000000029f4       0x34 /usr/lib/gcc/arm-none-eabi/4.9.3/../../../arm-none-eabi/lib/armv7e-m/fpu/libg.a(lib_a-__atexit.o)
 .debug_frame   0x0000000000002a28       0x50 /usr/lib/gcc/arm-none-eabi/4.9.3/../../../arm-none-eabi/lib/armv7e-m/fpu/libg.a(lib_a-__call_atexit.o)
 .debug_frame   0x0000000000002a78       0x88 /usr/lib/gcc/arm-none-eabi/4.9.3/../../../arm-none-eabi/lib/armv7e-m/fpu/libg.a(lib_a-dtoa.o)
 .debug_frame   0x0000000000002b00       0x6c /usr/lib/gcc/arm-none-eabi/4.9.3/../../../arm-none-eabi/lib/armv7e-m/fpu/libg.a(lib_a-fflush.o)
 .debug_frame   0x0000000000002b6c      0x124 /usr/lib/gcc/arm-none-eabi/4.9.3/../../../arm-none-eabi/lib/armv7e-m/fpu/libg.a(lib_a-findfp.o)
 .debug_frame   0x0000000000002c90       0x74 /usr/lib/gcc/arm-none-eabi/4.9.3/../../../arm-none-eabi/lib/armv7e-m/fpu/libg.a(lib_a-freer.o)
 .debug_frame   0x0000000000002d04       0x68 /usr/lib/gcc/arm-none-eabi/4.9.3/../../../arm-none-eabi/lib/armv7e-m/fpu/libg.a(lib_a-fvwrite.o)
 .debug_frame   0x0000000000002d6c       0x54 /usr/lib/gcc/arm-none-eabi/4.9.3/../../../arm-none-eabi/lib/armv7e-m/fpu/libg.a(lib_a-fwalk.o)
 .debug_frame   0x0000000000002dc0       0x9c /usr/lib/gcc/arm-none-eabi/4.9.3/../../../arm-none-eabi/lib/armv7e-m/fpu/libg.a(lib_a-locale.o)
 .debug_frame   0x0000000000002e5c       0x48 /usr/lib/gcc/arm-none-eabi/4.9.3/../../../arm-none-eabi/lib/armv7e-m/fpu/libg.a(lib_a-makebuf.o)
 .debug_frame   0x0000000000002ea4       0x30 /usr/lib/gcc/arm-none-eabi/4.9.3/../../../arm-none-eabi/lib/armv7e-m/fpu/libg.a(lib_a-malloc.o)
 .debug_frame   0x0000000000002ed4       0x58 /usr/lib/gcc/arm-none-eabi/4.9.3/../../../arm-none-eabi/lib/armv7e-m/fpu/libg.a(lib_a-mallocr.o)
 .debug_frame   0x0000000000002f2c       0x3c /usr/lib/gcc/arm-none-eabi/4.9.3/../../../arm-none-eabi/lib/armv7e-m/fpu/libg.a(lib_a-memchr.o)
 .debug_frame   0x0000000000002f68       0x30 /usr/lib/gcc/arm-none-eabi/4.9.3/../../../arm-none-eabi/lib/armv7e-m/fpu/libg.a(lib_a-memmove.o)
 .debug_frame   0x0000000000002f98       0x30 /usr/lib/gcc/arm-none-eabi/4.9.3/../../../arm-none-eabi/lib/armv7e-m/fpu/libg.a(lib_a-mlock.o)
 .debug_frame   0x0000000000002fc8      0x268 /usr/lib/gcc/arm-none-eabi/4.9.3/../../../arm-none-eabi/lib/armv7e-m/fpu/libg.a(lib_a-mprec.o)
 .debug_frame   0x0000000000003230       0x68 /usr/lib/gcc/arm-none-eabi/4.9.3/../../../arm-none-eabi/lib/armv7e-m/fpu/libg.a(lib_a-putc.o)
 .debug_frame   0x0000000000003298       0x60 /usr/lib/gcc/arm-none-eabi/4.9.3/../../../arm-none-eabi/lib/armv7e-m/fpu/libg.a(lib_a-reallocr.o)
 .debug_frame   0x00000000000032f8       0x34 /usr/lib/gcc/arm-none-eabi/4.9.3/../../../arm-none-eabi/lib/armv7e-m/fpu/libg.a(lib_a-s_fpclassify.o)
 .debug_frame   0x000000000000332c       0x88 /usr/lib/gcc/arm-none-eabi/4.9.3/../../../arm-none-eabi/lib/armv7e-m/fpu/libg.a(lib_a-stdio.o)
 .debug_frame   0x00000000000033b4       0xd8 /usr/lib/gcc/arm-none-eabi/4.9.3/../../../arm-none-eabi/lib/armv7e-m/fpu/libg.a(lib_a-vfiprintf.o)
 .debug_frame   0x000000000000348c       0x3c /usr/lib/gcc/arm-none-eabi/4.9.3/../../../arm-none-eabi/lib/armv7e-m/fpu/libg.a(lib_a-wbuf.o)
 .debug_frame   0x00000000000034c8       0x28 /usr/lib/gcc/arm-none-eabi/4.9.3/../../../arm-none-eabi/lib/armv7e-m/fpu/libg.a(lib_a-callocr.o)
 .debug_frame   0x00000000000034f0       0x44 /usr/lib/gcc/arm-none-eabi/4.9.3/../../../arm-none-eabi/lib/armv7e-m/fpu/libg.a(lib_a-fclose.o)
 .debug_frame   0x0000000000003534       0x84 /usr/lib/gcc/arm-none-eabi/4.9.3/../../../arm-none-eabi/lib/armv7e-m/fpu/libg.a(lib_a-fputwc.o)
 .debug_frame   0x00000000000035b8       0x60 /usr/lib/gcc/arm-none-eabi/4.9.3/../../../arm-none-eabi/lib/armv7e-m/fpu/libg.a(lib_a-wcrtomb.o)
 .debug_frame   0x0000000000003618       0x48 /usr/lib/gcc/arm-none-eabi/4.9.3/../../../arm-none-eabi/lib/armv7e-m/fpu/libg.a(lib_a-wctomb_r.o)
 .debug_frame   0x0000000000003660       0x28 /usr/lib/gcc/arm-none-eabi/4.9.3/armv7e-m/fpu/libgcc.a(_aeabi_uldivmod.o)
 .debug_frame   0x0000000000003688       0x50 /usr/lib/gcc/arm-none-eabi/4.9.3/armv7e-m/fpu/libgcc.a(bpabi.o)
 .debug_frame   0x00000000000036d8       0x34 /usr/lib/gcc/arm-none-eabi/4.9.3/armv7e-m/fpu/libgcc.a(_divdi3.o)
 .debug_frame   0x000000000000370c       0x30 /usr/lib/gcc/arm-none-eabi/4.9.3/armv7e-m/fpu/libgcc.a(_udivdi3.o)
